(lp0
(lp1
F3.1649344170318727
aF41.07689725507905
aF0.0
aa(lp2
F3.1649344170318585
aF41.16101716636736
aF0.0
aa(lp3
F3.1649344170318585
aF41.301217018514606
aF0.0
aa(lp4
F3.3051342749088874
aF43.264014948575735
aF0.0
aa(lp5
F3.3051342749089088
aF43.40421480072294
aF0.0
aa(lp6
F3.3752342038474126
aF43.404214800722954
aF0.0
aa(lp7
F4.006133564294025
aF43.40421480072297
aF0.0
aa(lp8
F4.503843059757479
aF43.362154845078805
aF0.0
aa(lp9
F5.008562548114313
aF43.313084896827306
aF0.0
aa(lp10
F5.793681752226114
aF43.22896498553892
aF0.0
aa(lp11
F6.3755111624153855
aF43.13082508903592
aF0.0
aa(lp12
F7.0204305086500725
aF43.01866520731808
aF0.0
aa(lp13
F10.10482738194466
aF42.668165576950045
aF0.0
aa(lp14
F10.413267069274113
aF42.668165576950045
aF0.0
aa(lp15
F10.903966571843156
aF42.661155584342694
aF0.0
aa(lp16
F11.857325605407478
aF42.633115613913205
aF0.0
aa(lp17
F11.962475498815262
aF42.6331156139132
aF0.0
aa(lp18
F17.83684954386258
aF42.66816557695001
aF0.0
aa(lp19
F17.920969458588853
aF42.668165576950024
aF0.0
aa(lp20
F19.49821785970474
aF42.71022553259419
aF0.0
aa(lp21
F20.61981672272159
aF42.73826550302365
aF0.0
aa(lp22
F22.197065123838133
aF42.80836542909724
aF0.0
aa(lp23
F24.7627225229876
aF42.80836542909724
aF0.0
aa(lp24
F24.93096235244013
aF42.80836542909724
aF0.0
aa(lp25
F29.725797491834438
aF42.88547534777822
aF0.0
aa(lp26
F31.099756099029296
aF42.91351531820768
aF0.0
aa(lp27
F31.380155814783347
aF42.91351531820768
aF0.0
aa(lp28
F31.87085531735293
aF42.91351531820768
aF0.0
aa(lp29
F36.182000947071515
aF42.913515318207686
aF0.0
aa(lp30
F36.95310016539517
aF42.913515318207686
aF0.0
aa(lp31
F37.93449917053434
aF42.913515318207686
aF0.0
aa(lp32
F40.1776968965666
aF42.913515318207686
aF0.0
aa(lp33
F40.731486335181
aF42.913515318207686
aF0.0
aa(lp34
F42.070394977906616
aF42.91351531820768
aF0.0
aa(lp35
F42.343784700766165
aF42.913515318207686
aF0.0
aa(lp36
F43.43734359220761
aF42.913515318207686
aF0.0
aa(lp37
F44.06824295265392
aF42.93454529602971
aF0.0
aa(lp38
F44.78326222782708
aF43.018665207318094
aF0.0
aa(lp39
F45.400141602486
aF43.01866520731809
aF0.0
aa(lp40
F46.31144067868664
aF43.09577512599906
aF0.0
aa(lp41
F46.87224011019474
aF43.12381509642853
aF0.0
aa(lp42
F46.97739000360228
aF43.123815096428544
aF0.0
aa(lp43
F47.39798957723358
aF43.12381509642847
aF0.0
aa(lp44
F47.433039541702854
aF43.15886505946527
aF0.0
aa(lp45
F47.685399285881445
aF43.15886505946531
aF0.0
aa(lp46
F47.7134392574569
aF43.158865059465285
aF0.0
aa(lp47
F47.92373904427244
aF43.12381509642847
aF0.0
aa(lp48
F48.26021870317729
aF43.12381509642853
aF0.0
aa(lp49
F48.49154846867439
aF43.12381509642849
aF0.0
aa(lp50
F48.54762841182512
aF43.11680510382118
aF0.0
aa(lp51
F48.66679829102066
aF43.08876513339169
aF0.0
aa(lp52
F48.7018482554899
aF43.08876513339173
aF0.0
aa(lp53
F48.729888227065345
aF43.08876513339169
aF0.0
aa(lp54
F48.799988156003835
aF43.08876513339169
aF0.0
aa(lp55
F49.22058772963493
aF43.08876513339169
aF0.0
aa(lp56
F49.26264768699803
aF43.088765133391746
aF0.0
aa(lp57
F49.290687658573454
aF43.08876513339173
aF0.0
aa(lp58
F49.33274761593655
aF43.053715170354906
aF0.0
aa(lp59
F49.3677975804058
aF43.053715170354906
aF0.0
aa(lp60
F49.49397745249493
aF43.00464522210349
aF0.0
aa(lp61
F49.88653705455081
aF42.80836542909728
aF0.0
aa(lp62
F50.13188680583562
aF42.63311561391323
aF0.0
aa(lp63
F50.44733648605891
aF42.17746609443478
aF0.0
aa(lp64
F50.622586308405204
aF42.002216279250746
aF0.0
aa(lp65
F50.85391607390218
aF41.770886523207935
aF0.0
aa(lp66
F51.09225583229324
aF41.532546774557545
aF0.0
aa(lp67
F51.148335775444046
aF41.47646683369865
aF0.0
aa(lp68
F51.42873549119811
aF41.25214707026309
aF0.0
aa(lp69
F51.98953492270615
aF40.91566742510969
aF0.0
aa(lp70
F52.921863977588345
aF40.579187779956385
aF0.0
aa(lp71
F53.146183750191604
aF40.49506786866803
aF0.0
aa(lp72
F53.28638360806861
aF40.24971812741039
aF0.0
aa(lp73
F53.67193321723044
aF39.72396868185831
aF0.0
aa(lp74
F53.882233004045986
aF39.338419088453406
aF0.0
aa(lp75
F54.28180259899549
aF39.00894943590751
aF0.0
aa(lp76
F54.443032435554066
aF38.882769568974936
aF0.0
aa(lp77
F54.86363200918516
aF38.602369864680526
aF0.0
aa(lp78
F55.144031724939055
aF38.378050101245066
aF0.0
aa(lp79
F55.42443144069327
aF38.18177030823884
aF0.0
aa(lp80
F55.978220879307216
aF37.53685098836203
aF0.0
aa(lp81
F56.53902031081561
aF36.716681853300344
aF0.0
aa(lp82
F56.651180197117256
aF36.46432211943531
aF0.0
aa(lp83
F56.68623016158655
aF36.148872452104115
aF0.0
aa(lp84
F56.68623016158656
aF35.72827289566243
aF0.0
aa(lp85
F56.686230161586536
aF35.02727363492647
aF0.0
aa(lp86
F56.67221017579884
aF34.55059413762574
aF0.0
aa(lp87
F56.75633009052507
aF32.608826185386675
aF0.0
aa(lp88
F56.763340083418896
aF32.33543647370021
aF0.0
aa(lp89
F56.79138005499432
aF31.241877626951265
aF0.0
aa(lp90
F56.82643001946355
aF30.190378735847105
aF0.0
aa(lp91
F56.861479983932824
aF29.34917962296373
aF0.0
aa(lp92
F56.89652994840209
aF28.823430177411637
aF0.0
aa(lp93
F56.89652994840208
aF28.367780657933153
aF0.0
aa(lp94
F56.89652994840208
aF27.561631508086634
aF0.0
aa(lp95
F56.89652994840212
aF26.790532321276885
aF0.0
aa(lp96
F57.00167984180987
aF25.528733651951868
aF0.0
aa(lp97
F57.07177977074837
aF24.393114849559694
aF0.0
aa(lp98
F57.07177977074838
aF23.776235500111568
aF0.0
aa(lp99
F57.07177977074837
aF23.600985684927608
aF0.0
aa(lp100
F57.07878976364222
aF23.439755854958236
aF0.0
aa.