(lp0
(lp1
ccopy_reg
_reconstructor
p2
(cgeometry_msgs.msg._Point
Point
p3
c__builtin__
object
p4
Ntp5
Rp6
(lp7
F74.39644622802734
aF78.05413055419922
aF0.0
abaF90.5097994633987
aS'close_room'
p8
aa(lp9
g2
(g3
g4
Ntp10
Rp11
(lp12
F69.38021850585938
aF78.05412292480469
aF0.0
abaF91.22877106384966
ag8
aa(lp13
g2
(g3
g4
Ntp14
Rp15
(lp16
F60.43608474731445
aF78.17216491699219
aF0.0
abaF90.48681595172809
ag8
aa(lp17
g2
(g3
g4
Ntp18
Rp19
(lp20
F52.35235595703125
aF78.21454620361328
aF0.0
abaF85.91502671590847
ag8
aa(lp21
g2
(g3
g4
Ntp22
Rp23
(lp24
F51.883663177490234
aF81.15357971191406
aF0.0
abaF-89.3010758565197
ag8
aa(lp25
g2
(g3
g4
Ntp26
Rp27
(lp28
F53.867919921875
aF81.11122131347656
aF0.0
abaF-92.73992442929125
ag8
aa(lp29
g2
(g3
g4
Ntp30
Rp31
(lp32
F64.1254653930664
aF80.98433685302734
aF0.0
abaF-93.45145098340004
ag8
aa(lp33
g2
(g3
g4
Ntp34
Rp35
(lp36
F66.0257339477539
aF80.97020721435547
aF0.0
abaF-90.55095355801627
ag8
aa(lp37
g2
(g3
g4
Ntp38
Rp39
(lp40
F78.60311126708984
aF73.79154968261719
aF0.0
abaF-179.99876267050698
ag8
aa(lp41
g2
(g3
g4
Ntp42
Rp43
(lp44
F78.60380554199219
aF71.75614929199219
aF0.0
abaF-177.30584384476342
ag8
aa(lp45
g2
(g3
g4
Ntp46
Rp47
(lp48
F75.68096160888672
aF67.73021697998047
aF0.0
abaF-2.260614160714512
ag8
aa(lp49
g2
(g3
g4
Ntp50
Rp51
(lp52
F78.5949478149414
aF61.4654541015625
aF0.0
abaF-179.99953865532268
ag8
aa(lp53
g2
(g3
g4
Ntp54
Rp55
(lp56
F78.43601989746094
aF59.617828369140625
aF0.0
abaF-176.79781295102617
ag8
aa(lp57
g2
(g3
g4
Ntp58
Rp59
(lp60
F74.06063842773438
aF46.704933166503906
aF0.0
abaF87.10610093382138
ag8
aa(lp61
g2
(g3
g4
Ntp62
Rp63
(lp64
F62.97679138183594
aF46.7507209777832
aF0.0
abaF88.35467743460012
ag8
aa(lp65
g2
(g3
g4
Ntp66
Rp67
(lp68
F66.65884399414062
aF51.34707260131836
aF0.0
abaF-89.80732899167774
ag8
aa(lp69
g2
(g3
g4
Ntp70
Rp71
(lp72
F73.45586395263672
aF18.33311653137207
aF0.0
abaF0.24067272506214982
ag8
aa(lp73
g2
(g3
g4
Ntp74
Rp75
(lp76
F25.901025772094727
aF15.937772750854492
aF0.0
abaF-95.69488529369214
ag8
aa(lp77
g2
(g3
g4
Ntp78
Rp79
(lp80
F9.985901832580566
aF13.655247688293457
aF0.0
abaF92.2342409675371
ag8
aa(lp81
g2
(g3
g4
Ntp82
Rp83
(lp84
F3.586501121520996
aF18.40268898010254
aF0.0
abaF-4.1010902853248705
ag8
aa(lp85
g2
(g3
g4
Ntp86
Rp87
(lp88
F3.431633472442627
aF23.753009796142578
aF0.0
abaF-3.6877865501564164
ag8
aa(lp89
g2
(g3
g4
Ntp90
Rp91
(lp92
F3.4173073768615723
aF25.670156478881836
aF0.0
abaF-7.012783912562957
ag8
aa(lp93
g2
(g3
g4
Ntp94
Rp95
(lp96
F3.25484561920166
aF37.95428466796875
aF0.0
abaF8.28190045783814
ag8
aa(lp97
g2
(g3
g4
Ntp98
Rp99
(lp100
F7.5226898193359375
aF46.354122161865234
aF0.0
abaF91.84680607549905
ag8
aa(lp101
g2
(g3
g4
Ntp102
Rp103
(lp104
F18.351747512817383
aF46.66893005371094
aF0.0
abaF88.10383666803344
ag8
aa(lp105
g2
(g3
g4
Ntp106
Rp107
(lp108
F26.41885757446289
aF46.79383850097656
aF0.0
abaF97.28019759504876
ag8
aa(lp109
g2
(g3
g4
Ntp110
Rp111
(lp112
F2.8413987159729004
aF65.01781463623047
aF0.0
abaF-0.00022181575721791805
ag8
aa(lp113
g2
(g3
g4
Ntp114
Rp115
(lp116
F2.4793295860290527
aF71.09195709228516
aF0.0
abaF2.821091218231276
ag8
aa(lp117
g2
(g3
g4
Ntp118
Rp119
(lp120
F2.270197868347168
aF73.27693176269531
aF0.0
abaF-4.560115821744113
ag8
aa(lp121
g2
(g3
g4
Ntp122
Rp123
(lp124
F2.2009024620056152
aF78.3194351196289
aF0.0
abaF9.381921044129422
ag8
aa(lp125
g2
(g3
g4
Ntp126
Rp127
(lp128
F15.506477355957031
aF78.2994155883789
aF0.0
abaF91.3235887396317
ag8
aa(lp129
g2
(g3
g4
Ntp130
Rp131
(lp132
F33.96063232421875
aF65.58724975585938
aF0.0
abaF-1.4231351720174066
ag8
aa(lp133
g2
(g3
g4
Ntp134
Rp135
(lp136
F33.84377670288086
aF60.08434295654297
aF0.0
abaF4.284462088015867
ag8
aa(lp137
g2
(g3
g4
Ntp138
Rp139
(lp140
F33.97784423828125
aF53.735618591308594
aF0.0
abaF-1.1996579795921667
ag8
aa(lp141
g2
(g3
g4
Ntp142
Rp143
(lp144
F58.03093719482422
aF52.796295166015625
aF0.0
abaF-91.54821523279384
ag8
aa(lp145
g2
(g3
g4
Ntp146
Rp147
(lp148
F78.76472473144531
aF82.8748550415039
aF0.0
abaF-92.86219764729005
aS'open_room'
p149
aa(lp150
g2
(g3
g4
Ntp151
Rp152
(lp153
F76.054931640625
aF82.74882507324219
aF0.0
abaF-85.39956196691573
ag149
aa(lp154
g2
(g3
g4
Ntp155
Rp156
(lp157
F73.03005981445312
aF82.9063720703125
aF0.0
abaF-89.169684513742
ag149
aa(lp158
g2
(g3
g4
Ntp159
Rp160
(lp161
F43.86101531982422
aF81.43958282470703
aF0.0
abaF-92.53214196928347
ag149
aa(lp162
g2
(g3
g4
Ntp163
Rp164
(lp165
F28.138851165771484
aF82.31206512451172
aF0.0
abaF-91.69127247583401
ag149
aa(lp166
g2
(g3
g4
Ntp167
Rp168
(lp169
F15.285160064697266
aF81.8080062866211
aF0.0
abaF-88.51390012797755
ag149
aa(lp170
g2
(g3
g4
Ntp171
Rp172
(lp173
F9.346630096435547
aF81.61898040771484
aF0.0
abaF-91.01502586762875
ag149
aa(lp174
g2
(g3
g4
Ntp175
Rp176
(lp177
F5.495248794555664
aF81.14641571044922
aF0.0
abaF-88.87676294348542
ag149
aa(lp178
g2
(g3
g4
Ntp179
Rp180
(lp181
F6.182718753814697
aF26.77924919128418
aF0.0
abaF-177.4500868459169
ag149
aa(lp182
g2
(g3
g4
Ntp183
Rp184
(lp185
F6.750758171081543
aF20.593936920166016
aF0.0
abaF-176.80740157504934
ag149
aa(lp186
g2
(g3
g4
Ntp187
Rp188
(lp189
F15.036108016967773
aF15.714807510375977
aF0.0
abaF-87.54243295651781
ag149
aa(lp190
g2
(g3
g4
Ntp191
Rp192
(lp193
F22.778593063354492
aF16.212032318115234
aF0.0
abaF-88.67385634071432
ag149
aa(lp194
g2
(g3
g4
Ntp195
Rp196
(lp197
F18.232547760009766
aF13.55228042602539
aF0.0
abaF89.89433718125281
ag149
aa(lp198
g2
(g3
g4
Ntp199
Rp200
(lp201
F25.92373275756836
aF13.18133544921875
aF0.0
abaF90.77950265789528
ag149
aa(lp202
g2
(g3
g4
Ntp203
Rp204
(lp205
F30.982789993286133
aF13.086624145507812
aF0.0
abaF94.53224073298853
ag149
aa(lp206
g2
(g3
g4
Ntp207
Rp208
(lp209
F43.448001861572266
aF13.045388221740723
aF0.0
abaF89.9589477107738
ag149
aa(lp210
g2
(g3
g4
Ntp211
Rp212
(lp213
F47.56827926635742
aF11.521990776062012
aF0.0
abaF91.98633561341651
ag149
aa(lp214
g2
(g3
g4
Ntp215
Rp216
(lp217
F56.14034652709961
aF11.348342895507812
aF0.0
abaF93.46808992086007
ag149
aa(lp218
g2
(g3
g4
Ntp219
Rp220
(lp221
F64.52297973632812
aF11.948230743408203
aF0.0
abaF92.31844023673192
ag149
aa(lp222
g2
(g3
g4
Ntp223
Rp224
(lp225
F47.566959381103516
aF16.134517669677734
aF0.0
abaF-92.87397076290108
ag149
aa(lp226
g2
(g3
g4
Ntp227
Rp228
(lp229
F55.73813247680664
aF15.700723648071289
aF0.0
abaF-95.69477448435349
ag149
aa(lp230
g2
(g3
g4
Ntp231
Rp232
(lp233
F64.54026794433594
aF16.528881072998047
aF0.0
abaF-90.48674611314968
ag149
aa(lp234
g2
(g3
g4
Ntp235
Rp236
(lp237
F67.74311065673828
aF13.110363960266113
aF0.0
abaF92.8355934786633
ag149
aa(lp238
g2
(g3
g4
Ntp239
Rp240
(lp241
F70.14254760742188
aF13.378719329833984
aF0.0
abaF90.99607054209895
ag149
aa(lp242
g2
(g3
g4
Ntp243
Rp244
(lp245
F73.5838394165039
aF13.718118667602539
aF0.0
abaF89.99955869994048
ag149
aa(lp246
g2
(g3
g4
Ntp247
Rp248
(lp249
F76.5831298828125
aF13.662866592407227
aF0.0
abaF95.66998907803075
ag149
aa(lp250
g2
(g3
g4
Ntp251
Rp252
(lp253
F78.22282409667969
aF23.157304763793945
aF0.0
abaF-174.70139920460056
ag149
aa(lp254
g2
(g3
g4
Ntp255
Rp256
(lp257
F74.30889892578125
aF27.951828002929688
aF0.0
abaF3.301748204363815
ag149
aa(lp258
g2
(g3
g4
Ntp259
Rp260
(lp261
F77.58984375
aF31.390499114990234
aF0.0
abaF-170.32651589761687
ag149
aa(lp262
g2
(g3
g4
Ntp263
Rp264
(lp265
F75.06520080566406
aF36.65308380126953
aF0.0
abaF-0.9093891780758767
ag149
aa(lp266
g2
(g3
g4
Ntp267
Rp268
(lp269
F75.12147521972656
aF39.59226989746094
aF0.0
abaF8.530607470829242
ag149
aa(lp270
g2
(g3
g4
Ntp271
Rp272
(lp273
F78.33851623535156
aF40.15998077392578
aF0.0
abaF173.37901677807238
ag149
aa(lp274
g2
(g3
g4
Ntp275
Rp276
(lp277
F78.1505126953125
aF44.1959342956543
aF0.0
abaF179.0206383565707
ag149
aa(lp278
g2
(g3
g4
Ntp279
Rp280
(lp281
F78.37006378173828
aF52.93357467651367
aF0.0
abaF-175.5524144559042
ag149
aa(lp282
g2
(g3
g4
Ntp283
Rp284
(lp285
F5.306624412536621
aF16.136152267456055
aF0.0
abaF-85.1560432805978
aS'corridor'
p286
aa(lp287
g2
(g3
g4
Ntp288
Rp289
(lp290
F7.323148727416992
aF14.400409698486328
aF0.0
abaF176.4482964638127
ag286
aa(lp291
g2
(g3
g4
Ntp292
Rp293
(lp294
F4.438751220703125
aF45.87351608276367
aF0.0
abaF93.61740412318026
ag286
aa(lp295
g2
(g3
g4
Ntp296
Rp297
(lp298
F6.136205673217773
aF48.732391357421875
aF0.0
abaF-179.22848997508166
ag286
aa(lp299
g2
(g3
g4
Ntp300
Rp301
(lp302
F4.23454475402832
aF51.08074951171875
aF0.0
abaF-89.78298410131853
ag286
aa(lp303
g2
(g3
g4
Ntp304
Rp305
(lp306
F3.585569381713867
aF77.06304168701172
aF0.0
abaF89.44914977483751
ag286
aa(lp307
g2
(g3
g4
Ntp308
Rp309
(lp310
F5.045910835266113
aF79.325927734375
aF0.0
abaF-173.32891112976932
ag286
aa(lp311
g2
(g3
g4
Ntp312
Rp313
(lp314
F37.597896575927734
aF78.21658325195312
aF0.0
abaF91.46889269060746
ag286
aa(lp315
g2
(g3
g4
Ntp316
Rp317
(lp318
F34.470314025878906
aF81.05506134033203
aF0.0
abaF0.48763206003665954
ag286
aa(lp319
g2
(g3
g4
Ntp320
Rp321
(lp322
F38.01841735839844
aF83.10508728027344
aF0.0
abaF-90.73465770028943
ag286
aa(lp323
g2
(g3
g4
Ntp324
Rp325
(lp326
F40.72547912597656
aF79.95121002197266
aF0.0
abaF-177.8984099813663
ag286
aa(lp327
g2
(g3
g4
Ntp328
Rp329
(lp330
F33.654869079589844
aF48.954566955566406
aF0.0
abaF0.000266437718793424
ag286
aa(lp331
g2
(g3
g4
Ntp332
Rp333
(lp334
F36.97967529296875
aF46.344459533691406
aF0.0
abaF91.19340397880451
ag286
aa(lp335
g2
(g3
g4
Ntp336
Rp337
(lp338
F36.91753387451172
aF51.37826919555664
aF0.0
abaF-88.80659449549603
ag286
aa(lp339
g2
(g3
g4
Ntp340
Rp341
(lp342
F40.18017578125
aF48.76814651489258
aF0.0
abaF-179.99991039512017
ag286
aa(lp343
g2
(g3
g4
Ntp344
Rp345
(lp346
F40.786983489990234
aF14.492206573486328
aF0.0
abaF-176.58351413444677
ag286
aa(lp347
g2
(g3
g4
Ntp348
Rp349
(lp350
F37.40640640258789
aF16.63814353942871
aF0.0
abaF-90.41831431869879
ag286
aa(lp351
g2
(g3
g4
Ntp352
Rp353
(lp354
F34.2609977722168
aF14.58039665222168
aF0.0
abaF0.4034810479034281
ag286
aa(lp355
g2
(g3
g4
Ntp356
Rp357
(lp358
F37.505149841308594
aF11.78786849975586
aF0.0
abaF91.96374808915436
ag286
aa(lp359
g2
(g3
g4
Ntp360
Rp361
(lp362
F74.20516967773438
aF15.116714477539062
aF0.0
abaF4.9392216814061145
ag286
aa(lp363
g2
(g3
g4
Ntp364
Rp365
(lp366
F77.07588195800781
aF17.777389526367188
aF0.0
abaF-93.0663649058016
ag286
aa(lp367
g2
(g3
g4
Ntp368
Rp369
(lp370
F76.86582946777344
aF46.79970932006836
aF0.0
abaF88.87661450726671
ag286
aa(lp371
g2
(g3
g4
Ntp372
Rp373
(lp374
F74.6252670288086
aF48.690181732177734
aF0.0
abaF6.1829130249390465
ag286
aa(lp375
g2
(g3
g4
Ntp376
Rp377
(lp378
F76.58575439453125
aF51.59591293334961
aF0.0
abaF-91.74878103346303
ag286
aa(lp379
g2
(g3
g4
Ntp380
Rp381
(lp382
F77.0396957397461
aF78.12886047363281
aF0.0
abaF91.39720328205728
ag286
aa(lp383
g2
(g3
g4
Ntp384
Rp385
(lp386
F75.35809326171875
aF79.88054656982422
aF0.0
abaF4.398659481783449
ag286
aa(lp387
g2
(g3
g4
Ntp388
Rp389
(lp390
F79.00157165527344
aF80.16082763671875
aF0.0
abaF-179.14460664411678
ag286
aa.