(lp0
(lp1
ccopy_reg
_reconstructor
p2
(cgeometry_msgs.msg._Point
Point
p3
c__builtin__
object
p4
Ntp5
Rp6
(lp7
F252.2157745361328
aF44.33769607543945
aF0.0
abaF-88.52072685259218
aS'close_room'
p8
aa(lp9
g2
(g3
g4
Ntp10
Rp11
(lp12
F247.4004669189453
aF44.42966079711914
aF0.0
abaF-89.02195497339869
ag8
aa(lp13
g2
(g3
g4
Ntp14
Rp15
(lp16
F239.97427368164062
aF44.678497314453125
aF0.0
abaF-89.99999999999999
ag8
aa(lp17
g2
(g3
g4
Ntp18
Rp19
(lp20
F237.93487548828125
aF42.54716491699219
aF0.0
abaF89.99999999999999
ag8
aa(lp21
g2
(g3
g4
Ntp22
Rp23
(lp24
F234.5247802734375
aF44.97102737426758
aF0.0
abaF-87.97270184407458
ag8
aa(lp25
g2
(g3
g4
Ntp26
Rp27
(lp28
F226.77615356445312
aF45.2281379699707
aF0.0
abaF-89.28606374609755
ag8
aa(lp29
g2
(g3
g4
Ntp30
Rp31
(lp32
F221.79478454589844
aF45.26156997680664
aF0.0
abaF-93.36583265877206
ag8
aa(lp33
g2
(g3
g4
Ntp34
Rp35
(lp36
F213.40196228027344
aF45.57878112792969
aF0.0
abaF-88.74004591462202
ag8
aa(lp37
g2
(g3
g4
Ntp38
Rp39
(lp40
F213.40196228027344
aF43.37194061279297
aF0.0
abaF91.32846248432304
ag8
aa(lp41
g2
(g3
g4
Ntp42
Rp43
(lp44
F208.58700561523438
aF45.76267623901367
aF0.0
abaF-88.66240913202923
ag8
aa(lp45
g2
(g3
g4
Ntp46
Rp47
(lp48
F208.72073364257812
aF43.605995178222656
aF0.0
abaF89.99999999999999
ag8
aa(lp49
g2
(g3
g4
Ntp50
Rp51
(lp52
F200.02061462402344
aF46.09681701660156
aF0.0
abaF-92.37430358617951
ag8
aa(lp53
g2
(g3
g4
Ntp54
Rp55
(lp56
F195.2058868408203
aF46.33086395263672
aF0.0
abaF-90.74229225859769
ag8
aa(lp57
g2
(g3
g4
Ntp58
Rp59
(lp60
F195.03871154785156
aF44.065704345703125
aF0.0
abaF88.54528084655041
ag8
aa(lp61
g2
(g3
g4
Ntp62
Rp63
(lp64
F187.2481231689453
aF46.66522216796875
aF0.0
abaF-91.32547123631201
ag8
aa(lp65
g2
(g3
g4
Ntp66
Rp67
(lp68
F182.3758544921875
aF46.815486907958984
aF0.0
abaF-88.53032990291734
ag8
aa(lp69
g2
(g3
g4
Ntp70
Rp71
(lp72
F173.7145233154297
aF47.1331901550293
aF0.0
abaF-85.80143616137974
ag8
aa(lp73
g2
(g3
g4
Ntp74
Rp75
(lp76
F173.81703186035156
aF44.95948791503906
aF0.0
abaF90.92834743794447
ag8
aa(lp77
g2
(g3
g4
Ntp78
Rp79
(lp80
F153.04954528808594
aF42.99940490722656
aF0.0
abaF-86.50752588188278
ag8
aa(lp81
g2
(g3
g4
Ntp82
Rp83
(lp84
F145.39349365234375
aF43.12477493286133
aF0.0
abaF-92.39326559168693
ag8
aa(lp85
g2
(g3
g4
Ntp86
Rp87
(lp88
F140.43978881835938
aF43.385841369628906
aF0.0
abaF-85.57310271829132
ag8
aa(lp89
g2
(g3
g4
Ntp90
Rp91
(lp92
F138.47689819335938
aF41.2824592590332
aF0.0
abaF92.05064608888247
ag8
aa(lp93
g2
(g3
g4
Ntp94
Rp95
(lp96
F133.88075256347656
aF41.382301330566406
aF0.0
abaF91.49016302403008
ag8
aa(lp97
g2
(g3
g4
Ntp98
Rp99
(lp100
F132.11007690429688
aF43.54733657836914
aF0.0
abaF-84.59511171784801
ag8
aa(lp101
g2
(g3
g4
Ntp102
Rp103
(lp104
F127.34233093261719
aF43.69443893432617
aF0.0
abaF-87.9555545989276
ag8
aa(lp105
g2
(g3
g4
Ntp106
Rp107
(lp108
F125.40502166748047
aF41.59601593017578
aF0.0
abaF88.05896912384769
ag8
aa(lp109
g2
(g3
g4
Ntp110
Rp111
(lp112
F120.6383056640625
aF41.70511245727539
aF0.0
abaF94.2131193882372
ag8
aa(lp113
g2
(g3
g4
Ntp114
Rp115
(lp116
F118.8538818359375
aF43.94381332397461
aF0.0
abaF-90.10123466238561
ag8
aa(lp117
g2
(g3
g4
Ntp118
Rp119
(lp120
F114.55208587646484
aF43.967472076416016
aF0.0
abaF-89.22351923832545
ag8
aa(lp121
g2
(g3
g4
Ntp122
Rp123
(lp124
F112.37234497070312
aF41.92543029785156
aF0.0
abaF91.62205201123137
ag8
aa(lp125
g2
(g3
g4
Ntp126
Rp127
(lp128
F107.5053482055664
aF42.05636215209961
aF0.0
abaF92.22205203784053
ag8
aa(lp129
g2
(g3
g4
Ntp130
Rp131
(lp132
F105.81295776367188
aF44.230224609375
aF0.0
abaF-86.13701918488027
ag8
aa(lp133
g2
(g3
g4
Ntp134
Rp135
(lp136
F101.28302001953125
aF44.32472610473633
aF0.0
abaF-88.69580631194071
ag8
aa(lp137
g2
(g3
g4
Ntp138
Rp139
(lp140
F99.28387451171875
aF42.26777648925781
aF0.0
abaF92.65401963875718
ag8
aa(lp141
g2
(g3
g4
Ntp142
Rp143
(lp144
F94.713134765625
aF42.41796875
aF0.0
abaF88.38253256938586
ag8
aa(lp145
g2
(g3
g4
Ntp146
Rp147
(lp148
F92.90511322021484
aF44.57160949707031
aF0.0
abaF-86.72141839100465
ag8
aa(lp149
g2
(g3
g4
Ntp150
Rp151
(lp152
F88.5101547241211
aF44.57072448730469
aF0.0
abaF-87.15085403557804
ag8
aa(lp153
g2
(g3
g4
Ntp154
Rp155
(lp156
F80.24647521972656
aF44.7415771484375
aF0.0
abaF-87.85977989982882
ag8
aa(lp157
g2
(g3
g4
Ntp158
Rp159
(lp160
F59.904998779296875
aF40.38581848144531
aF0.0
abaF-91.46627213928438
ag8
aa(lp161
g2
(g3
g4
Ntp162
Rp163
(lp164
F58.84980010986328
aF38.2126350402832
aF0.0
abaF89.01499582466835
ag8
aa(lp165
g2
(g3
g4
Ntp166
Rp167
(lp168
F52.99834442138672
aF40.356300354003906
aF0.0
abaF-85.94244832198821
ag8
aa(lp169
g2
(g3
g4
Ntp170
Rp171
(lp172
F51.882137298583984
aF38.251895904541016
aF0.0
abaF93.30639618339877
ag8
aa(lp173
g2
(g3
g4
Ntp174
Rp175
(lp176
F48.454193115234375
aF40.399925231933594
aF0.0
abaF-87.70755074554891
ag8
aa(lp177
g2
(g3
g4
Ntp178
Rp179
(lp180
F45.2137451171875
aF38.1981086730957
aF0.0
abaF91.79284474569496
ag8
aa(lp181
g2
(g3
g4
Ntp182
Rp183
(lp184
F40.59367370605469
aF38.22975158691406
aF0.0
abaF93.45830683924613
ag8
aa(lp185
g2
(g3
g4
Ntp186
Rp187
(lp188
F38.943416595458984
aF40.41279220581055
aF0.0
abaF-81.84313688821432
ag8
aa(lp189
g2
(g3
g4
Ntp190
Rp191
(lp192
F34.144710540771484
aF40.3110237121582
aF0.0
abaF-86.87905318283237
ag8
aa(lp193
g2
(g3
g4
Ntp194
Rp195
(lp196
F32.33613967895508
aF38.319313049316406
aF0.0
abaF91.31630977256323
ag8
aa(lp197
g2
(g3
g4
Ntp198
Rp199
(lp200
F27.7020206451416
aF38.31890106201172
aF0.0
abaF92.74051955714044
ag8
aa(lp201
g2
(g3
g4
Ntp202
Rp203
(lp204
F25.79807472229004
aF40.36714172363281
aF0.0
abaF-86.33794430088248
ag8
aa(lp205
g2
(g3
g4
Ntp206
Rp207
(lp208
F21.247453689575195
aF40.47447204589844
aF0.0
abaF-87.62802750652783
ag8
aa(lp209
g2
(g3
g4
Ntp210
Rp211
(lp212
F14.660633087158203
aF38.33575439453125
aF0.0
abaF91.279421815841
ag8
aa(lp213
g2
(g3
g4
Ntp214
Rp215
(lp216
F13.124556541442871
aF40.426048278808594
aF0.0
abaF-86.60725785348299
ag8
aa(lp217
g2
(g3
g4
Ntp218
Rp219
(lp220
F7.5564494132995605
aF40.499229431152344
aF0.0
abaF-87.31935686146997
ag8
aa(lp221
g2
(g3
g4
Ntp222
Rp223
(lp224
F4.079028129577637
aF38.51472473144531
aF0.0
abaF0.00011372432574893424
ag8
aa(lp225
g2
(g3
g4
Ntp226
Rp227
(lp228
F0.5184755325317383
aF32.12371826171875
aF0.0
abaF0.9276132827032482
ag8
aa(lp229
g2
(g3
g4
Ntp230
Rp231
(lp232
F4.1402130126953125
aF28.764835357666016
aF0.0
abaF-3.575487896128371
ag8
aa(lp233
g2
(g3
g4
Ntp234
Rp235
(lp236
F8.132545471191406
aF20.067771911621094
aF0.0
abaF88.48604053630001
ag8
aa(lp237
g2
(g3
g4
Ntp238
Rp239
(lp240
F12.230518341064453
aF20.085142135620117
aF0.0
abaF89.0193002713178
ag8
aa(lp241
g2
(g3
g4
Ntp242
Rp243
(lp244
F21.2637996673584
aF20.123865127563477
aF0.0
abaF92.50154869293627
ag8
aa(lp245
g2
(g3
g4
Ntp246
Rp247
(lp248
F24.886852264404297
aF20.098548889160156
aF0.0
abaF90.25161020393658
ag8
aa(lp249
g2
(g3
g4
Ntp250
Rp251
(lp252
F34.32160568237305
aF20.00282096862793
aF0.0
abaF88.85234363909282
ag8
aa(lp253
g2
(g3
g4
Ntp254
Rp255
(lp256
F38.1369743347168
aF19.905868530273438
aF0.0
abaF85.70458528182988
ag8
aa(lp257
g2
(g3
g4
Ntp258
Rp259
(lp260
F47.27248764038086
aF19.915735244750977
aF0.0
abaF88.54058223631135
ag8
aa(lp261
g2
(g3
g4
Ntp262
Rp263
(lp264
F50.99169921875
aF19.890514373779297
aF0.0
abaF89.67368292973215
ag8
aa(lp265
g2
(g3
g4
Ntp266
Rp267
(lp268
F60.2845344543457
aF19.88591194152832
aF0.0
abaF90.93773975621434
ag8
aa(lp269
g2
(g3
g4
Ntp270
Rp271
(lp272
F69.59014892578125
aF17.128175735473633
aF0.0
abaF0.48834831517441724
ag8
aa(lp273
g2
(g3
g4
Ntp274
Rp275
(lp276
F69.40804290771484
aF10.729734420776367
aF0.0
abaF6.47254829066446
ag8
aa(lp277
g2
(g3
g4
Ntp278
Rp279
(lp280
F71.52534484863281
aF12.763289451599121
aF0.0
abaF168.9963547042085
ag8
aa(lp281
g2
(g3
g4
Ntp282
Rp283
(lp284
F71.52806091308594
aF10.109307289123535
aF0.0
abaF179.5768289844046
ag8
aa(lp285
g2
(g3
g4
Ntp286
Rp287
(lp288
F67.87749481201172
aF7.465489864349365
aF0.0
abaF-4.370626647179322
ag8
aa(lp289
g2
(g3
g4
Ntp290
Rp291
(lp292
F69.74269104003906
aF5.992478847503662
aF0.0
abaF89.07786747966738
ag8
aa(lp293
g2
(g3
g4
Ntp294
Rp295
(lp296
F88.67604064941406
aF24.411535263061523
aF0.0
abaF88.80812718500093
ag8
aa(lp297
g2
(g3
g4
Ntp298
Rp299
(lp300
F88.40937805175781
aF28.96221160888672
aF0.0
abaF-85.54565315481902
ag8
aa(lp301
g2
(g3
g4
Ntp302
Rp303
(lp304
F92.60968780517578
aF24.459993362426758
aF0.0
abaF90.26102800842759
ag8
aa(lp305
g2
(g3
g4
Ntp306
Rp307
(lp308
F101.23714447021484
aF24.247756958007812
aF0.0
abaF89.55785278912792
ag8
aa(lp309
g2
(g3
g4
Ntp310
Rp311
(lp312
F105.26036071777344
aF24.217805862426758
aF0.0
abaF87.96047720229949
ag8
aa(lp313
g2
(g3
g4
Ntp314
Rp315
(lp316
F114.67096710205078
aF23.94314193725586
aF0.0
abaF88.7571464939108
ag8
aa(lp317
g2
(g3
g4
Ntp318
Rp319
(lp320
F118.46491241455078
aF23.775405883789062
aF0.0
abaF87.54754160154948
ag8
aa(lp321
g2
(g3
g4
Ntp322
Rp323
(lp324
F139.93569946289062
aF23.39457893371582
aF0.0
abaF89.04364225731594
ag8
aa(lp325
g2
(g3
g4
Ntp326
Rp327
(lp328
F144.10992431640625
aF27.507112503051758
aF0.0
abaF-88.8549248408712
ag8
aa(lp329
g2
(g3
g4
Ntp330
Rp331
(lp332
F155.50775146484375
aF19.465288162231445
aF0.0
abaF-0.20470182454131344
ag8
aa(lp333
g2
(g3
g4
Ntp334
Rp335
(lp336
F155.70005798339844
aF12.167035102844238
aF0.0
abaF-2.6273273153814056
ag8
aa(lp337
g2
(g3
g4
Ntp338
Rp339
(lp340
F155.68881225585938
aF8.484766006469727
aF0.0
abaF-2.0454623594886097
ag8
aa(lp341
g2
(g3
g4
Ntp342
Rp343
(lp344
F186.08468627929688
aF26.694915771484375
aF0.0
abaF87.31917291899818
ag8
aa(lp345
g2
(g3
g4
Ntp346
Rp347
(lp348
F195.433837890625
aF26.297489166259766
aF0.0
abaF87.89191677214818
ag8
aa(lp349
g2
(g3
g4
Ntp350
Rp351
(lp352
F199.4419403076172
aF26.095558166503906
aF0.0
abaF86.55337834818464
ag8
aa(lp353
g2
(g3
g4
Ntp354
Rp355
(lp356
F208.3878173828125
aF25.81599998474121
aF0.0
abaF86.7629134916103
ag8
aa(lp357
g2
(g3
g4
Ntp358
Rp359
(lp360
F212.11187744140625
aF25.62923812866211
aF0.0
abaF84.83641685270321
ag8
aa(lp361
g2
(g3
g4
Ntp362
Rp363
(lp364
F221.36044311523438
aF25.229028701782227
aF0.0
abaF86.3856282599151
ag8
aa(lp365
g2
(g3
g4
Ntp366
Rp367
(lp368
F224.97201538085938
aF25.128637313842773
aF0.0
abaF84.86118630124733
ag8
aa(lp369
g2
(g3
g4
Ntp370
Rp371
(lp372
F234.0889129638672
aF24.649314880371094
aF0.0
abaF88.26146499940198
ag8
aa(lp373
g2
(g3
g4
Ntp374
Rp375
(lp376
F238.0900421142578
aF24.559127807617188
aF0.0
abaF84.39861585622782
ag8
aa(lp377
g2
(g3
g4
Ntp378
Rp379
(lp380
F246.23623657226562
aF35.752952575683594
aF0.0
abaF178.15863738116906
ag8
aa(lp381
g2
(g3
g4
Ntp382
Rp383
(lp384
F6.651910781860352
aF39.403297424316406
aF0.0
abaF180.0
aS'corridor'
p385
aa(lp386
g2
(g3
g4
Ntp387
Rp388
(lp389
F5.212882995605469
aF38.01575469970703
aF0.0
abaF89.85211549837551
ag385
aa(lp390
g2
(g3
g4
Ntp391
Rp392
(lp393
F62.873207092285156
aF22.648651123046875
aF0.0
abaF-0.37298275548353405
ag385
aa(lp394
g2
(g3
g4
Ntp395
Rp396
(lp397
F70.48448181152344
aF20.121566772460938
aF0.0
abaF89.7551959147598
ag385
aa(lp398
g2
(g3
g4
Ntp399
Rp400
(lp401
F77.72079467773438
aF26.58509063720703
aF0.0
abaF-177.10864941363076
ag385
aa(lp402
g2
(g3
g4
Ntp403
Rp404
(lp405
F75.23999786376953
aF29.874427795410156
aF0.0
abaF-90.77371689865069
ag385
aa(lp406
g2
(g3
g4
Ntp407
Rp408
(lp409
F64.6684341430664
aF29.650287628173828
aF0.0
abaF-91.45908530078609
ag385
aa(lp410
g2
(g3
g4
Ntp411
Rp412
(lp413
F64.49807739257812
aF32.337703704833984
aF0.0
abaF90.57971335291185
ag385
aa(lp414
g2
(g3
g4
Ntp415
Rp416
(lp417
F74.94731140136719
aF32.1695556640625
aF0.0
abaF90.65141713749048
ag385
aa(lp418
g2
(g3
g4
Ntp419
Rp420
(lp421
F63.04038619995117
aF39.54366683959961
aF0.0
abaF-1.5910550835335764
ag385
aa(lp422
g2
(g3
g4
Ntp423
Rp424
(lp425
F77.20091247558594
aF44.086708068847656
aF0.0
abaF-178.90008610176943
ag385
aa(lp426
g2
(g3
g4
Ntp427
Rp428
(lp429
F155.71080017089844
aF25.0062313079834
aF0.0
abaF2.280599274539514
ag385
aa(lp430
g2
(g3
g4
Ntp431
Rp432
(lp433
F156.56800842285156
aF41.833518981933594
aF0.0
abaF2.257553827998012
ag385
aa(lp434
g2
(g3
g4
Ntp435
Rp436
(lp437
F170.64561462402344
aF46.43522644042969
aF0.0
abaF179.56855731096206
ag385
aa(lp438
g2
(g3
g4
Ntp439
Rp440
(lp441
F158.39710998535156
aF32.6788330078125
aF0.0
abaF-90.21669378049528
ag385
aa(lp442
g2
(g3
g4
Ntp443
Rp444
(lp445
F158.40701293945312
aF35.08372116088867
aF0.0
abaF89.76049024644023
ag385
aa(lp446
g2
(g3
g4
Ntp447
Rp448
(lp449
F168.22645568847656
aF32.61860275268555
aF0.0
abaF-89.1679610161137
ag385
aa(lp450
g2
(g3
g4
Ntp451
Rp452
(lp453
F168.37899780273438
aF34.9183349609375
aF0.0
abaF88.59638715107347
ag385
aa(lp454
g2
(g3
g4
Ntp455
Rp456
(lp457
F170.4350128173828
aF28.892852783203125
aF0.0
abaF179.84921413220297
ag385
aa(lp458
g2
(g3
g4
Ntp459
Rp460
(lp461
F242.6486358642578
aF26.303585052490234
aF0.0
abaF0.3378405146398631
ag385
aa(lp462
g2
(g3
g4
Ntp463
Rp464
(lp465
F245.32754516601562
aF28.610797882080078
aF0.0
abaF-90.40008666522581
ag385
aa(lp466
g2
(g3
g4
Ntp467
Rp468
(lp469
F246.6929931640625
aF42.296714782714844
aF0.0
abaF173.70592398359855
ag385
aa(lp470
g2
(g3
g4
Ntp471
Rp472
(lp473
F243.15521240234375
aF43.49142837524414
aF0.0
abaF1.6705658812714463
ag385
aa(lp474
g2
(g3
g4
Ntp475
Rp476
(lp477
F245.4058837890625
aF40.8519172668457
aF0.0
abaF89.64229566552034
ag385
aa(lp478
g2
(g3
g4
Ntp479
Rp480
(lp481
F169.92767333984375
aF13.381465911865234
aF0.0
abaF176.4656495112524
aS'open_room'
p482
aa(lp483
g2
(g3
g4
Ntp484
Rp485
(lp486
F74.58345031738281
aF24.51194953918457
aF0.0
abaF89.81687422389952
ag482
aa.