(lp0
(lp1
ccopy_reg
_reconstructor
p2
(cgeometry_msgs.msg._Point
Point
p3
c__builtin__
object
p4
Ntp5
Rp6
(lp7
F5.297852039337158
aF11.999188423156738
aF0.0
abaF-92.0129685180398
aS'close_room'
p8
aa(lp9
g2
(g3
g4
Ntp10
Rp11
(lp12
F12.121824264526367
aF12.080410957336426
aF0.0
abaF-89.91829207299722
ag8
aa(lp13
g2
(g3
g4
Ntp14
Rp15
(lp16
F15.00990104675293
aF12.213651657104492
aF0.0
abaF-90.30223259523358
ag8
aa(lp17
g2
(g3
g4
Ntp18
Rp19
(lp20
F14.048942565917969
aF8.662896156311035
aF0.0
abaF92.8595592201559
ag8
aa(lp21
g2
(g3
g4
Ntp22
Rp23
(lp24
F0.6365966796875
aF9.626996994018555
aF0.0
abaF-2.0453126619308066
ag8
aa(lp25
g2
(g3
g4
Ntp26
Rp27
(lp28
F0.6109037399291992
aF11.049381256103516
aF0.0
abaF-1.9703290781834453
ag8
aa(lp29
g2
(g3
g4
Ntp30
Rp31
(lp32
F0.6905765533447266
aF11.87994384765625
aF0.0
abaF3.8195308816065516
ag8
aa(lp33
g2
(g3
g4
Ntp34
Rp35
(lp36
F3.259493350982666
aF13.131309509277344
aF0.0
abaF-179.67687040756508
ag8
aa(lp37
g2
(g3
g4
Ntp38
Rp39
(lp40
F3.9479970932006836
aF18.052045822143555
aF0.0
abaF-175.96467530623823
ag8
aa(lp41
g2
(g3
g4
Ntp42
Rp43
(lp44
F0.43225574493408203
aF23.351268768310547
aF0.0
abaF1.438377917420077
ag8
aa(lp45
g2
(g3
g4
Ntp46
Rp47
(lp48
F4.180660247802734
aF23.369129180908203
aF0.0
abaF176.73963247175834
ag8
aa(lp49
g2
(g3
g4
Ntp50
Rp51
(lp52
F21.857038497924805
aF12.18331527709961
aF0.0
abaF-89.46773513027557
ag8
aa(lp53
g2
(g3
g4
Ntp54
Rp55
(lp56
F25.862205505371094
aF8.752571105957031
aF0.0
abaF92.89848213035849
ag8
aa(lp57
g2
(g3
g4
Ntp58
Rp59
(lp60
F28.093839645385742
aF12.20477294921875
aF0.0
abaF-87.64734513936604
ag8
aa(lp61
g2
(g3
g4
Ntp62
Rp63
(lp64
F33.03608703613281
aF12.229806900024414
aF0.0
abaF-87.98859665513324
ag8
aa(lp65
g2
(g3
g4
Ntp66
Rp67
(lp68
F37.761966705322266
aF9.302962303161621
aF0.0
abaF92.65901587962254
ag8
aa(lp69
g2
(g3
g4
Ntp70
Rp71
(lp72
F37.966392517089844
aF12.385313034057617
aF0.0
abaF-86.49708953588885
ag8
aa(lp73
g2
(g3
g4
Ntp74
Rp75
(lp76
F54.396697998046875
aF12.345690727233887
aF0.0
abaF91.13108124779896
ag8
aa(lp77
g2
(g3
g4
Ntp78
Rp79
(lp80
F59.65530014038086
aF12.322439193725586
aF0.0
abaF93.31366654957692
ag8
aa(lp81
g2
(g3
g4
Ntp82
Rp83
(lp84
F51.98616409301758
aF14.932961463928223
aF0.0
abaF-90.17115704307058
ag8
aa(lp85
g2
(g3
g4
Ntp86
Rp87
(lp88
F55.02180480957031
aF14.9168119430542
aF0.0
abaF-89.00242937191604
ag8
aa(lp89
g2
(g3
g4
Ntp90
Rp91
(lp92
F57.0584716796875
aF15.014859199523926
aF0.0
abaF-87.75722593591475
ag8
aa(lp93
g2
(g3
g4
Ntp94
Rp95
(lp96
F61.55475616455078
aF15.02794075012207
aF0.0
abaF-86.30610525368876
ag8
aa(lp97
g2
(g3
g4
Ntp98
Rp99
(lp100
F79.0870361328125
aF14.486682891845703
aF0.0
abaF-87.8236942618959
ag8
aa(lp101
g2
(g3
g4
Ntp102
Rp103
(lp104
F67.07044219970703
aF12.197280883789062
aF0.0
abaF88.57130445840514
ag8
aa(lp105
g2
(g3
g4
Ntp106
Rp107
(lp108
F79.07847595214844
aF14.445716857910156
aF0.0
abaF-90.25446087363387
ag8
aa(lp109
g2
(g3
g4
Ntp110
Rp111
(lp112
F84.08229064941406
aF14.385396957397461
aF0.0
abaF-89.888102450802
ag8
aa(lp113
g2
(g3
g4
Ntp114
Rp115
(lp116
F84.64952850341797
aF7.786004066467285
aF0.0
abaF-0.728236878862734
ag8
aa(lp117
g2
(g3
g4
Ntp118
Rp119
(lp120
F86.49191284179688
aF0.8437519073486328
aF0.0
abaF1.704825808519772
ag8
aa(lp121
g2
(g3
g4
Ntp122
Rp123
(lp124
F90.22138977050781
aF0.8561134338378906
aF0.0
abaF178.78964859314837
ag8
aa(lp125
g2
(g3
g4
Ntp126
Rp127
(lp128
F93.17375946044922
aF16.513023376464844
aF0.0
abaF-88.93514538656483
ag8
aa(lp129
g2
(g3
g4
Ntp130
Rp131
(lp132
F95.80018615722656
aF13.879281997680664
aF0.0
abaF89.57468191430449
ag8
aa(lp133
g2
(g3
g4
Ntp134
Rp135
(lp136
F101.18048095703125
aF16.279346466064453
aF0.0
abaF-92.21380390560854
ag8
aa(lp137
g2
(g3
g4
Ntp138
Rp139
(lp140
F111.52086639404297
aF12.437721252441406
aF0.0
abaF92.27759857190912
ag8
aa(lp141
g2
(g3
g4
Ntp142
Rp143
(lp144
F116.32659912109375
aF15.740486145019531
aF0.0
abaF-90.45264964432155
ag8
aa(lp145
g2
(g3
g4
Ntp146
Rp147
(lp148
F125.76161193847656
aF12.457413673400879
aF0.0
abaF92.43990320200497
ag8
aa(lp149
g2
(g3
g4
Ntp150
Rp151
(lp152
F86.84264373779297
aF29.637815475463867
aF0.0
abaF0.7324108948450043
ag8
aa(lp153
g2
(g3
g4
Ntp154
Rp155
(lp156
F90.8084487915039
aF25.51671600341797
aF0.0
abaF178.65708409296897
ag8
aa(lp157
g2
(g3
g4
Ntp158
Rp159
(lp160
F132.92105102539062
aF33.220359802246094
aF0.0
abaF89.99999999999999
ag8
aa(lp161
g2
(g3
g4
Ntp162
Rp163
(lp164
F129.9306640625
aF33.115142822265625
aF0.0
abaF96.00863830691864
ag8
aa(lp165
g2
(g3
g4
Ntp166
Rp167
(lp168
F130.99456787109375
aF36.59270477294922
aF0.0
abaF-83.27620080955344
ag8
aa(lp169
g2
(g3
g4
Ntp170
Rp171
(lp172
F122.8956527709961
aF33.145721435546875
aF0.0
abaF89.67190421050647
ag8
aa(lp173
g2
(g3
g4
Ntp174
Rp175
(lp176
F118.76344299316406
aF36.45188522338867
aF0.0
abaF-87.58942182694258
ag8
aa(lp177
g2
(g3
g4
Ntp178
Rp179
(lp180
F110.17495727539062
aF35.72378921508789
aF0.0
abaF-88.92878965682365
ag8
aa(lp181
g2
(g3
g4
Ntp182
Rp183
(lp184
F110.13472747802734
aF35.75449752807617
aF0.0
abaF-86.99401032672242
ag8
aa(lp185
g2
(g3
g4
Ntp186
Rp187
(lp188
F103.41951751708984
aF32.501495361328125
aF0.0
abaF92.7042216365735
ag8
aa(lp189
g2
(g3
g4
Ntp190
Rp191
(lp192
F84.21670532226562
aF33.72272491455078
aF0.0
abaF89.29521282317805
ag8
aa(lp193
g2
(g3
g4
Ntp194
Rp195
(lp196
F71.58354949951172
aF38.96232604980469
aF0.0
abaF-88.19792152967638
ag8
aa(lp197
g2
(g3
g4
Ntp198
Rp199
(lp200
F68.4837417602539
aF33.30791473388672
aF0.0
abaF87.94948391772233
ag8
aa(lp201
g2
(g3
g4
Ntp202
Rp203
(lp204
F68.6367416381836
aF39.023250579833984
aF0.0
abaF-96.29046093140099
ag8
aa(lp205
g2
(g3
g4
Ntp206
Rp207
(lp208
F63.6993408203125
aF39.092708587646484
aF0.0
abaF-92.28609162157852
ag8
aa(lp209
g2
(g3
g4
Ntp210
Rp211
(lp212
F60.00939178466797
aF39.05946731567383
aF0.0
abaF-85.33381640380999
ag8
aa(lp213
g2
(g3
g4
Ntp214
Rp215
(lp216
F62.13348388671875
aF34.37614822387695
aF0.0
abaF88.62109594089671
ag8
aa(lp217
g2
(g3
g4
Ntp218
Rp219
(lp220
F53.954132080078125
aF39.1668701171875
aF0.0
abaF-87.4090886405135
ag8
aa(lp221
g2
(g3
g4
Ntp222
Rp223
(lp224
F56.64715576171875
aF32.80597686767578
aF0.0
abaF88.19847700524149
ag8
aa(lp225
g2
(g3
g4
Ntp226
Rp227
(lp228
F35.889095306396484
aF30.944780349731445
aF0.0
abaF93.33760040389166
ag8
aa(lp229
g2
(g3
g4
Ntp230
Rp231
(lp232
F25.51045036315918
aF30.784299850463867
aF0.0
abaF87.1637217011881
ag8
aa(lp233
g2
(g3
g4
Ntp234
Rp235
(lp236
F23.041748046875
aF34.053428649902344
aF0.0
abaF-92.27756105431347
ag8
aa(lp237
g2
(g3
g4
Ntp238
Rp239
(lp240
F17.962013244628906
aF33.990196228027344
aF0.0
abaF-91.07695018623541
ag8
aa(lp241
g2
(g3
g4
Ntp242
Rp243
(lp244
F20.96448516845703
aF29.728979110717773
aF0.0
abaF87.55504613757131
ag8
aa(lp245
g2
(g3
g4
Ntp246
Rp247
(lp248
F9.84484577178955
aF30.60076332092285
aF0.0
abaF88.08936782495675
ag8
aa(lp249
g2
(g3
g4
Ntp250
Rp251
(lp252
F8.918558120727539
aF33.884849548339844
aF0.0
abaF-92.13966668648285
ag8
aa(lp253
g2
(g3
g4
Ntp254
Rp255
(lp256
F43.84998321533203
aF24.3874454498291
aF0.0
abaF-179.40341373269877
ag8
aa(lp257
g2
(g3
g4
Ntp258
Rp259
(lp260
F41.44994354248047
aF19.78512191772461
aF0.0
abaF6.214162818537292
ag8
aa(lp261
g2
(g3
g4
Ntp262
Rp263
(lp264
F43.967201232910156
aF19.30941390991211
aF0.0
abaF-178.16358513790058
ag8
aa(lp265
g2
(g3
g4
Ntp266
Rp267
(lp268
F83.61505126953125
aF11.727395057678223
aF0.0
abaF91.16981543202994
aS'open_room'
p269
aa(lp270
g2
(g3
g4
Ntp271
Rp272
(lp273
F40.48634719848633
aF9.660032272338867
aF0.0
abaF89.86008384463639
ag269
aa(lp274
g2
(g3
g4
Ntp275
Rp276
(lp277
F45.413970947265625
aF37.64141845703125
aF0.0
abaF-88.97704732733132
ag269
aa(lp278
g2
(g3
g4
Ntp279
Rp280
(lp281
F3.9835567474365234
aF10.58352279663086
aF0.0
abaF174.4546677916525
aS'corridor'
p282
aa(lp283
g2
(g3
g4
Ntp284
Rp285
(lp286
F1.9195871353149414
aF12.342111587524414
aF0.0
abaF-88.88769961241283
ag282
aa(lp287
g2
(g3
g4
Ntp288
Rp289
(lp290
F2.0737457275390625
aF30.009666442871094
aF0.0
abaF88.32452827771786
ag282
aa(lp291
g2
(g3
g4
Ntp292
Rp293
(lp294
F3.8893918991088867
aF32.294761657714844
aF0.0
abaF-173.39957448166228
ag282
aa(lp295
g2
(g3
g4
Ntp296
Rp297
(lp298
F38.80805969238281
aF11.126993179321289
aF0.0
abaF2.0765579533930087
ag282
aa(lp299
g2
(g3
g4
Ntp300
Rp301
(lp302
F42.908382415771484
aF9.602209091186523
aF0.0
abaF86.87865708473149
ag282
aa(lp303
g2
(g3
g4
Ntp304
Rp305
(lp306
F42.72509765625
aF18.361459732055664
aF0.0
abaF-91.39891599531951
ag282
aa(lp307
g2
(g3
g4
Ntp308
Rp309
(lp310
F46.15678405761719
aF13.588688850402832
aF0.0
abaF-177.9865619353017
ag282
aa(lp311
g2
(g3
g4
Ntp312
Rp313
(lp314
F39.932735443115234
aF13.389961242675781
aF0.0
abaF-86.60673763012616
ag282
aa(lp315
g2
(g3
g4
Ntp316
Rp317
(lp318
F39.821075439453125
aF14.36476993560791
aF0.0
abaF90.37898639144646
ag282
aa(lp319
g2
(g3
g4
Ntp320
Rp321
(lp322
F84.81324005126953
aF13.068922996520996
aF0.0
abaF-1.1624805520061432
ag282
aa(lp323
g2
(g3
g4
Ntp324
Rp325
(lp326
F92.12293243408203
aF15.131891250610352
aF0.0
abaF-177.76303266664542
ag282
aa(lp327
g2
(g3
g4
Ntp328
Rp329
(lp330
F88.60516357421875
aF18.845504760742188
aF0.0
abaF-86.22829312578195
ag282
aa(lp331
g2
(g3
g4
Ntp332
Rp333
(lp334
F86.07862091064453
aF9.418947219848633
aF0.0
abaF88.99373120872185
ag282
aa(lp335
g2
(g3
g4
Ntp336
Rp337
(lp338
F91.04723358154297
aF9.400813102722168
aF0.0
abaF89.85320622229091
ag282
aa(lp339
g2
(g3
g4
Ntp340
Rp341
(lp342
F89.4962158203125
aF33.44129943847656
aF0.0
abaF84.87960395113193
ag282
aa(lp343
g2
(g3
g4
Ntp344
Rp345
(lp346
F91.94778442382812
aF35.90800476074219
aF0.0
abaF179.1230331864909
ag282
aa(lp347
g2
(g3
g4
Ntp348
Rp349
(lp350
F87.37393951416016
aF35.926300048828125
aF0.0
abaF3.696538880124335
ag282
aa(lp351
g2
(g3
g4
Ntp352
Rp353
(lp354
F47.71971130371094
aF36.114227294921875
aF0.0
abaF-179.04189690698777
ag282
aa(lp355
g2
(g3
g4
Ntp356
Rp357
(lp358
F46.134246826171875
aF33.54174041748047
aF0.0
abaF90.15109043124994
ag282
aa(lp359
g2
(g3
g4
Ntp360
Rp361
(lp362
F44.4472770690918
aF35.51092529296875
aF0.0
abaF-0.24378697611296343
ag282
aa(lp363
g2
(g3
g4
Ntp364
Rp365
(lp366
F37.055137634277344
aF32.82016372680664
aF0.0
abaF1.9673529355651014
ag282
aa(lp367
g2
(g3
g4
Ntp368
Rp369
(lp370
F42.828399658203125
aF27.022863388061523
aF0.0
abaF95.54940348718746
ag282
aa.