(lp0
(lp1
ccopy_reg
_reconstructor
p2
(cgeometry_msgs.msg._Point
Point
p3
c__builtin__
object
p4
Ntp5
Rp6
(lp7
F177.44271850585938
aF44.03837585449219
aF0.0
abaF91.80260053113693
aS'close_room'
p8
aa(lp9
g2
(g3
g4
Ntp10
Rp11
(lp12
F173.26185607910156
aF44.178680419921875
aF0.0
abaF91.5511627768729
ag8
aa(lp13
g2
(g3
g4
Ntp14
Rp15
(lp16
F163.83753967285156
aF44.15401077270508
aF0.0
abaF90.56991885537998
ag8
aa(lp17
g2
(g3
g4
Ntp18
Rp19
(lp20
F155.27723693847656
aF43.957393646240234
aF0.0
abaF88.86372268569971
ag8
aa(lp21
g2
(g3
g4
Ntp22
Rp23
(lp24
F174.6145782470703
aF48.93571472167969
aF0.0
abaF-88.35139780154334
ag8
aa(lp25
g2
(g3
g4
Ntp26
Rp27
(lp28
F158.17271423339844
aF48.78559112548828
aF0.0
abaF-89.0680955225967
ag8
aa(lp29
g2
(g3
g4
Ntp30
Rp31
(lp32
F146.81919860839844
aF47.68911361694336
aF0.0
abaF-91.01593903136003
ag8
aa(lp33
g2
(g3
g4
Ntp34
Rp35
(lp36
F137.6308135986328
aF43.34329605102539
aF0.0
abaF87.9636420626488
ag8
aa(lp37
g2
(g3
g4
Ntp38
Rp39
(lp40
F129.56646728515625
aF50.20878982543945
aF0.0
abaF-126.02737338510362
ag8
aa(lp41
g2
(g3
g4
Ntp42
Rp43
(lp44
F115.89451599121094
aF51.34514617919922
aF0.0
abaF-102.58881551191284
ag8
aa(lp45
g2
(g3
g4
Ntp46
Rp47
(lp48
F114.18463134765625
aF45.00630569458008
aF0.0
abaF87.61418987377373
ag8
aa(lp49
g2
(g3
g4
Ntp50
Rp51
(lp52
F107.4671630859375
aF44.98188018798828
aF0.0
abaF87.35209574773968
ag8
aa(lp53
g2
(g3
g4
Ntp54
Rp55
(lp56
F104.14507293701172
aF45.213932037353516
aF0.0
abaF84.90790811741348
ag8
aa(lp57
g2
(g3
g4
Ntp58
Rp59
(lp60
F91.14318084716797
aF44.4607048034668
aF0.0
abaF89.99982015035812
ag8
aa(lp61
g2
(g3
g4
Ntp62
Rp63
(lp64
F85.06869506835938
aF52.33311462402344
aF0.0
abaF-92.07020704501032
ag8
aa(lp65
g2
(g3
g4
Ntp66
Rp67
(lp68
F79.88956451416016
aF52.22318649291992
aF0.0
abaF-95.23363313239773
ag8
aa(lp69
g2
(g3
g4
Ntp70
Rp71
(lp72
F72.31632232666016
aF52.14989471435547
aF0.0
abaF-89.15722910054266
ag8
aa(lp73
g2
(g3
g4
Ntp74
Rp75
(lp76
F75.05792236328125
aF43.7364501953125
aF0.0
abaF91.62695877951957
ag8
aa(lp77
g2
(g3
g4
Ntp78
Rp79
(lp80
F30.817277908325195
aF45.49916076660156
aF0.0
abaF-93.27072083515239
ag8
aa(lp81
g2
(g3
g4
Ntp82
Rp83
(lp84
F24.012508392333984
aF45.303688049316406
aF0.0
abaF-92.60248275167665
ag8
aa(lp85
g2
(g3
g4
Ntp86
Rp87
(lp88
F28.202869415283203
aF39.537353515625
aF0.0
abaF88.53731890031786
ag8
aa(lp89
g2
(g3
g4
Ntp90
Rp91
(lp92
F12.1918306350708
aF45.24502944946289
aF0.0
abaF-89.72457804588835
ag8
aa(lp93
g2
(g3
g4
Ntp94
Rp95
(lp96
F13.232940673828125
aF40.75083923339844
aF0.0
abaF88.94216987506424
ag8
aa(lp97
g2
(g3
g4
Ntp98
Rp99
(lp100
F0.45548009872436523
aF31.004962921142578
aF0.0
abaF-0.23402443784706817
ag8
aa(lp101
g2
(g3
g4
Ntp102
Rp103
(lp104
F5.9678215980529785
aF31.32850456237793
aF0.0
abaF-178.73893005823797
ag8
aa(lp105
g2
(g3
g4
Ntp106
Rp107
(lp108
F5.04064416885376
aF24.1340274810791
aF0.0
abaF178.0827201608356
ag8
aa(lp109
g2
(g3
g4
Ntp110
Rp111
(lp112
F7.083514213562012
aF15.9622220993042
aF0.0
abaF-88.48214262224471
ag8
aa(lp113
g2
(g3
g4
Ntp114
Rp115
(lp116
F20.178667068481445
aF16.179779052734375
aF0.0
abaF-87.50424724081917
ag8
aa(lp117
g2
(g3
g4
Ntp118
Rp119
(lp120
F16.194732666015625
aF16.191980361938477
aF0.0
abaF-88.7813800770215
ag8
aa(lp121
g2
(g3
g4
Ntp122
Rp123
(lp124
F18.555652618408203
aF11.48427677154541
aF0.0
abaF89.26202335017082
ag8
aa(lp125
g2
(g3
g4
Ntp126
Rp127
(lp128
F21.972850799560547
aF12.719959259033203
aF0.0
abaF93.69932828029924
ag8
aa(lp129
g2
(g3
g4
Ntp130
Rp131
(lp132
F20.092079162597656
aF16.110578536987305
aF0.0
abaF-87.27074609107363
ag8
aa(lp133
g2
(g3
g4
Ntp134
Rp135
(lp136
F28.998327255249023
aF16.2874813079834
aF0.0
abaF-93.05291492785877
ag8
aa(lp137
g2
(g3
g4
Ntp138
Rp139
(lp140
F34.86666488647461
aF11.668630599975586
aF0.0
abaF89.68603941453969
ag8
aa(lp141
g2
(g3
g4
Ntp142
Rp143
(lp144
F37.489768981933594
aF16.409488677978516
aF0.0
abaF-89.43037812456281
ag8
aa(lp145
g2
(g3
g4
Ntp146
Rp147
(lp148
F44.16844940185547
aF16.473703384399414
aF0.0
abaF-89.05457353945623
ag8
aa(lp149
g2
(g3
g4
Ntp150
Rp151
(lp152
F50.66143798828125
aF16.57744598388672
aF0.0
abaF-91.34655150006535
ag8
aa(lp153
g2
(g3
g4
Ntp154
Rp155
(lp156
F50.38026809692383
aF11.812294960021973
aF0.0
abaF92.25456027435463
ag8
aa(lp157
g2
(g3
g4
Ntp158
Rp159
(lp160
F58.00380325317383
aF10.652691841125488
aF0.0
abaF177.72234640208336
ag8
aa(lp161
g2
(g3
g4
Ntp162
Rp163
(lp164
F58.138729095458984
aF5.207705497741699
aF0.0
abaF-179.21300022386148
ag8
aa(lp165
g2
(g3
g4
Ntp166
Rp167
(lp168
F58.15092468261719
aF3.304553985595703
aF0.0
abaF176.25052352267315
ag8
aa(lp169
g2
(g3
g4
Ntp170
Rp171
(lp172
F54.24702835083008
aF4.978961944580078
aF0.0
abaF86.59589052147648
ag8
aa(lp173
g2
(g3
g4
Ntp174
Rp175
(lp176
F55.614219665527344
aF1.564342975616455
aF0.0
abaF3.3348842887250325
ag8
aa(lp177
g2
(g3
g4
Ntp178
Rp179
(lp180
F55.155609130859375
aF26.616655349731445
aF0.0
abaF0.22376242689860867
ag8
aa(lp181
g2
(g3
g4
Ntp182
Rp183
(lp184
F62.873619079589844
aF19.871654510498047
aF0.0
abaF-87.35784488128657
ag8
aa(lp185
g2
(g3
g4
Ntp186
Rp187
(lp188
F64.1917495727539
aF19.92047119140625
aF0.0
abaF-89.33562195640242
ag8
aa(lp189
g2
(g3
g4
Ntp190
Rp191
(lp192
F69.24462890625
aF19.871654510498047
aF0.0
abaF-88.89597618067012
ag8
aa(lp193
g2
(g3
g4
Ntp194
Rp195
(lp196
F72.63761901855469
aF16.54578971862793
aF0.0
abaF92.48996683114886
ag8
aa(lp197
g2
(g3
g4
Ntp198
Rp199
(lp200
F73.34675598144531
aF20.07875633239746
aF0.0
abaF-86.8570523729363
ag8
aa(lp201
g2
(g3
g4
Ntp202
Rp203
(lp204
F76.03236389160156
aF19.889549255371094
aF0.0
abaF-86.3174488464402
ag8
aa(lp205
g2
(g3
g4
Ntp206
Rp207
(lp208
F79.76532745361328
aF16.35660743713379
aF0.0
abaF91.21869291539679
ag8
aa(lp209
g2
(g3
g4
Ntp210
Rp211
(lp212
F81.98506927490234
aF19.951690673828125
aF0.0
abaF-94.45402520184327
ag8
aa(lp213
g2
(g3
g4
Ntp214
Rp215
(lp216
F89.38081359863281
aF16.320648193359375
aF0.0
abaF89.35411598373759
ag8
aa(lp217
g2
(g3
g4
Ntp218
Rp219
(lp220
F105.50273895263672
aF19.315998077392578
aF0.0
abaF-88.24447909040008
ag8
aa(lp221
g2
(g3
g4
Ntp222
Rp223
(lp224
F112.23831939697266
aF19.120765686035156
aF0.0
abaF-92.174480448637
ag8
aa(lp225
g2
(g3
g4
Ntp226
Rp227
(lp228
F115.57855224609375
aF24.946807861328125
aF0.0
abaF-87.01932196325096
ag8
aa(lp229
g2
(g3
g4
Ntp230
Rp231
(lp232
F112.96643829345703
aF10.339522361755371
aF0.0
abaF-1.1234214369175015
ag8
aa(lp233
g2
(g3
g4
Ntp234
Rp235
(lp236
F115.37149810791016
aF1.0060796737670898
aF0.0
abaF-2.8623777364655885
ag8
aa(lp237
g2
(g3
g4
Ntp238
Rp239
(lp240
F120.32530212402344
aF1.2257061004638672
aF0.0
abaF178.5895898149024
ag8
aa(lp241
g2
(g3
g4
Ntp242
Rp243
(lp244
F115.6058578491211
aF24.955469131469727
aF0.0
abaF-87.0276603537859
ag8
aa(lp245
g2
(g3
g4
Ntp246
Rp247
(lp248
F124.71315002441406
aF29.504077911376953
aF0.0
abaF174.56402055183807
ag8
aa(lp249
g2
(g3
g4
Ntp250
Rp251
(lp252
F125.3364486694336
aF35.92536163330078
aF0.0
abaF177.27374299438836
ag8
aa(lp253
g2
(g3
g4
Ntp254
Rp255
(lp256
F119.62110900878906
aF39.60124969482422
aF0.0
abaF-2.8623048047832307
ag8
aa(lp257
g2
(g3
g4
Ntp258
Rp259
(lp260
F124.22708129882812
aF22.005224227905273
aF0.0
abaF-89.00757394692626
ag8
aa(lp261
g2
(g3
g4
Ntp262
Rp263
(lp264
F130.4766082763672
aF21.91977882385254
aF0.0
abaF-92.71084866872042
ag8
aa(lp265
g2
(g3
g4
Ntp266
Rp267
(lp268
F148.66136169433594
aF16.637062072753906
aF0.0
abaF91.42952776757318
ag8
aa(lp269
g2
(g3
g4
Ntp270
Rp271
(lp272
F165.60353088378906
aF20.726280212402344
aF0.0
abaF-86.76017511925099
ag8
aa(lp273
g2
(g3
g4
Ntp274
Rp275
(lp276
F167.55575561523438
aF16.447525024414062
aF0.0
abaF89.99788276648252
ag8
aa(lp277
g2
(g3
g4
Ntp278
Rp279
(lp280
F111.25033569335938
aF15.46696662902832
aF0.0
abaF90.97114332025886
aS'open_room'
p281
aa(lp282
g2
(g3
g4
Ntp283
Rp284
(lp285
F53.95336151123047
aF12.774648666381836
aF0.0
abaF96.75881710513177
ag281
aa(lp286
g2
(g3
g4
Ntp287
Rp288
(lp289
F60.59540939331055
aF50.404273986816406
aF0.0
abaF-88.19838056055421
ag281
aa(lp290
g2
(g3
g4
Ntp291
Rp292
(lp293
F51.41192626953125
aF43.5849609375
aF0.0
abaF-3.0939818837725874
aS't_junction'
p294
aa(lp295
g2
(g3
g4
Ntp296
Rp297
(lp298
F61.300697326660156
aF44.07396697998047
aF0.0
abaF-177.98077340951397
ag294
aa(lp299
g2
(g3
g4
Ntp300
Rp301
(lp302
F56.62798309326172
aF39.49180603027344
aF0.0
abaF91.7357903931368
ag294
aa(lp303
g2
(g3
g4
Ntp304
Rp305
(lp306
F56.519317626953125
aF20.800928115844727
aF0.0
abaF-91.20591779475538
ag294
aa(lp307
g2
(g3
g4
Ntp308
Rp309
(lp310
F53.29551315307617
aF16.182546615600586
aF0.0
abaF0.40354817198087145
ag294
aa(lp311
g2
(g3
g4
Ntp312
Rp313
(lp314
F60.68492126464844
aF17.776344299316406
aF0.0
abaF-179.02348611172116
ag294
aa(lp315
g2
(g3
g4
Ntp316
Rp317
(lp318
F56.70043182373047
aF15.240760803222656
aF0.0
abaF93.94519416325154
ag294
aa(lp319
g2
(g3
g4
Ntp320
Rp321
(lp322
F121.79448699951172
aF20.47787857055664
aF0.0
abaF174.37540154958188
ag294
aa(lp323
g2
(g3
g4
Ntp324
Rp325
(lp326
F119.90628051757812
aF24.28531837463379
aF0.0
abaF-93.99641691869948
ag294
aa(lp327
g2
(g3
g4
Ntp328
Rp329
(lp330
F123.45160675048828
aF48.017738342285156
aF0.0
abaF93.48118812384634
ag294
aa(lp331
g2
(g3
g4
Ntp332
Rp333
(lp334
F3.82861328125
aF42.544471740722656
aF0.0
abaF144.8879946798231
aS'corner'
p335
aa(lp336
g2
(g3
g4
Ntp337
Rp338
(lp339
F3.4389190673828125
aF15.119502067565918
aF0.0
abaF-140.47732200781317
ag335
aa(lp340
g2
(g3
g4
Ntp341
Rp342
(lp343
F114.50276184082031
aF17.89609146118164
aF0.0
abaF-0.5508525444181801
aS'4_junction'
p344
aa.