(lp0
(lp1
ccopy_reg
_reconstructor
p2
(cgeometry_msgs.msg._Point
Point
p3
c__builtin__
object
p4
Ntp5
Rp6
(lp7
F11.551534652709961
aF17.064542770385742
aF0.0
abaF-87.44118564532717
aS'open_room'
p8
aa(lp9
g2
(g3
g4
Ntp10
Rp11
(lp12
F11.671453475952148
aF13.364108085632324
aF0.0
abaF92.51376721054638
ag8
aa(lp13
g2
(g3
g4
Ntp14
Rp15
(lp16
F21.093847274780273
aF16.858963012695312
aF0.0
abaF-91.87773959195009
ag8
aa(lp17
g2
(g3
g4
Ntp18
Rp19
(lp20
F26.070585250854492
aF16.781871795654297
aF0.0
abaF-88.84259276490904
ag8
aa(lp21
g2
(g3
g4
Ntp22
Rp23
(lp24
F26.199077606201172
aF13.278451919555664
aF0.0
abaF87.9479983048388
ag8
aa(lp25
g2
(g3
g4
Ntp26
Rp27
(lp28
F34.75632858276367
aF16.747608184814453
aF0.0
abaF-89.15752907021029
ag8
aa(lp29
g2
(g3
g4
Ntp30
Rp31
(lp32
F34.74775695800781
aF13.33841323852539
aF0.0
abaF90.47868181583667
ag8
aa(lp33
g2
(g3
g4
Ntp34
Rp35
(lp36
F43.013771057128906
aF16.73047637939453
aF0.0
abaF-85.34660342973622
ag8
aa(lp37
g2
(g3
g4
Ntp38
Rp39
(lp40
F43.185081481933594
aF13.295585632324219
aF0.0
abaF92.55881594409648
ag8
aa.