(lp0
(lp1
ccopy_reg
_reconstructor
p2
(cgeometry_msgs.msg._Point
Point
p3
c__builtin__
object
p4
Ntp5
Rp6
(lp7
F4.679149627685547
aF16.96814727783203
aF0.0
abaF-90.6354592983212
aS'close_room'
p8
aa(lp9
g2
(g3
g4
Ntp10
Rp11
(lp12
F3.545156478881836
aF11.702832221984863
aF0.0
abaF91.28035678257645
aS'open_room'
p13
aa(lp14
g2
(g3
g4
Ntp15
Rp16
(lp17
F7.914920806884766
aF17.2329158782959
aF0.0
abaF-93.56041570810721
ag13
aa(lp18
g2
(g3
g4
Ntp19
Rp20
(lp21
F7.993736267089844
aF11.711589813232422
aF0.0
abaF91.29605736888732
ag13
aa(lp22
g2
(g3
g4
Ntp23
Rp24
(lp25
F13.212943077087402
aF11.895486831665039
aF0.0
abaF92.08526737073667
ag13
aa(lp26
g2
(g3
g4
Ntp27
Rp28
(lp29
F13.046558380126953
aF17.009611129760742
aF0.0
abaF-89.86795991460565
ag13
aa(lp30
g2
(g3
g4
Ntp31
Rp32
(lp33
F22.092599868774414
aF16.895767211914062
aF0.0
abaF-90.56638753914586
ag13
aa(lp34
g2
(g3
g4
Ntp35
Rp36
(lp37
F22.250228881835938
aF11.838565826416016
aF0.0
abaF89.0877682120924
ag13
aa(lp38
g2
(g3
g4
Ntp39
Rp40
(lp41
F25.770565032958984
aF16.952688217163086
aF0.0
abaF-86.91249771821855
ag13
aa(lp42
g2
(g3
g4
Ntp43
Rp44
(lp45
F25.67423439025879
aF12.162579536437988
aF0.0
abaF90.264050080749
ag13
aa(lp46
g2
(g3
g4
Ntp47
Rp48
(lp49
F30.14033317565918
aF14.273027420043945
aF0.0
abaF179.59460182529023
ag13
aa(lp50
g2
(g3
g4
Ntp51
Rp52
(lp53
F32.27705383300781
aF16.7644100189209
aF0.0
abaF-89.55055417289178
ag13
aa(lp54
g2
(g3
g4
Ntp55
Rp56
(lp57
F38.37196350097656
aF11.44887924194336
aF0.0
abaF92.51686362423527
ag13
aa(lp58
g2
(g3
g4
Ntp59
Rp60
(lp61
F41.165470123291016
aF16.60240936279297
aF0.0
abaF-87.8388702333286
ag13
aa(lp62
g2
(g3
g4
Ntp63
Rp64
(lp65
F44.32676696777344
aF11.374443054199219
aF0.0
abaF97.76077725293288
ag13
aa(lp66
g2
(g3
g4
Ntp67
Rp68
(lp69
F58.10549545288086
aF16.37494468688965
aF0.0
abaF-92.87448075847487
ag13
aa(lp70
g2
(g3
g4
Ntp71
Rp72
(lp73
F58.193058013916016
aF11.33078384399414
aF0.0
abaF93.65210603423657
ag13
aa(lp74
g2
(g3
g4
Ntp75
Rp76
(lp77
F63.20219421386719
aF13.78718376159668
aF0.0
abaF-179.9172263507837
ag13
aa.