(lp0
(lp1
ccopy_reg
_reconstructor
p2
(cgeometry_msgs.msg._Point
Point
p3
c__builtin__
object
p4
Ntp5
Rp6
(lp7
F44.53791809082031
aF16.353147506713867
aF0.0
abaF180.0
aS'room on right side'
p8
aa(lp9
g2
(g3
g4
Ntp10
Rp11
(lp12
F42.05009841918945
aF29.775146484375
aF0.0
abaF-178.81886537767602
ag8
aa(lp13
g2
(g3
g4
Ntp14
Rp15
(lp16
F34.67995834350586
aF29.461009979248047
aF0.0
abaF-175.52212727716244
ag8
aa(lp17
g2
(g3
g4
Ntp18
Rp19
(lp20
F29.436294555664062
aF29.00188636779785
aF0.0
abaF-177.3162578914124
ag8
aa(lp21
g2
(g3
g4
Ntp22
Rp23
(lp24
F20.85793685913086
aF28.615253448486328
aF0.0
abaF179.99993042389963
ag8
aa(lp25
g2
(g3
g4
Ntp26
Rp27
(lp28
F13.101156234741211
aF28.31319808959961
aF0.0
abaF180.0
ag8
aa(lp29
g2
(g3
g4
Ntp30
Rp31
(lp32
F10.805549621582031
aF27.76950454711914
aF0.0
abaF-178.30108207581355
ag8
aa(lp33
g2
(g3
g4
Ntp34
Rp35
(lp36
F10.696516036987305
aF14.203336715698242
aF0.0
abaF1.554129699890205
ag8
aa(lp37
g2
(g3
g4
Ntp38
Rp39
(lp40
F17.79813003540039
aF14.444887161254883
aF0.0
abaF-0.3719182429344276
ag8
aa(lp41
g2
(g3
g4
Ntp42
Rp43
(lp44
F24.803131103515625
aF14.758903503417969
aF0.0
abaF0.0
ag8
aa(lp45
g2
(g3
g4
Ntp46
Rp47
(lp48
F32.460330963134766
aF15.362785339355469
aF0.0
abaF0.0
ag8
aa(lp49
g2
(g3
g4
Ntp50
Rp51
(lp52
F40.21412658691406
aF15.205780029296875
aF0.0
abaF0.5304423649365058
ag8
aa(lp53
g2
(g3
g4
Ntp54
Rp55
(lp56
F42.36394500732422
aF15.302397727966309
aF0.0
abaF1.5343270833812959
ag8
aa(lp57
g2
(g3
g4
Ntp58
Rp59
(lp60
F48.37858963012695
aF15.918352127075195
aF0.0
abaF1.3139870308506947
ag8
aa(lp61
g2
(g3
g4
Ntp62
Rp63
(lp64
F60.721893310546875
aF26.993507385253906
aF0.0
abaF89.79561245748529
ag8
aa(lp65
g2
(g3
g4
Ntp66
Rp67
(lp68
F41.08352279663086
aF28.94147491455078
aF0.0
abaF3.647154724150054e-05
ag8
aa(lp69
g2
(g3
g4
Ntp70
Rp71
(lp72
F8.219947814941406
aF27.99906349182129
aF0.0
abaF2.94638348745993
aS'room on left side'
p73
aa(lp74
g2
(g3
g4
Ntp75
Rp76
(lp77
F10.443078994750977
aF28.301118850708008
aF0.0
abaF-2.385925741894929
ag73
aa(lp78
g2
(g3
g4
Ntp79
Rp80
(lp81
F18.513986587524414
aF28.530681610107422
aF0.0
abaF-1.8358504835787892
ag73
aa(lp82
g2
(g3
g4
Ntp83
Rp84
(lp85
F26.270763397216797
aF28.45819091796875
aF0.0
abaF5.262320089221832
ag73
aa(lp86
g2
(g3
g4
Ntp87
Rp88
(lp89
F32.33601379394531
aF29.158954620361328
aF0.0
abaF3.5761835418539656
ag73
aa(lp90
g2
(g3
g4
Ntp91
Rp92
(lp93
F39.87530517578125
aF29.47308921813965
aF0.0
abaF1.1523484499139887
ag73
aa(lp94
g2
(g3
g4
Ntp95
Rp96
(lp97
F42.31562805175781
aF16.19614028930664
aF0.0
abaF0.0
ag73
aa(lp98
g2
(g3
g4
Ntp99
Rp100
(lp101
F50.28684616088867
aF15.978744506835938
aF0.0
abaF-176.46997411774697
ag73
aa(lp102
g2
(g3
g4
Ntp103
Rp104
(lp105
F44.248050689697266
aF15.749268531799316
aF0.0
abaF177.01333042816012
ag73
aa(lp106
g2
(g3
g4
Ntp107
Rp108
(lp109
F42.43641662597656
aF15.749268531799316
aF0.0
abaF-178.54717282506778
ag73
aa(lp110
g2
(g3
g4
Ntp111
Rp112
(lp113
F34.4651985168457
aF15.507718086242676
aF0.0
abaF-174.04015089101722
ag73
aa(lp114
g2
(g3
g4
Ntp115
Rp116
(lp117
F26.179973602294922
aF14.903837203979492
aF0.0
abaF178.39398792913025
ag73
aa(lp118
g2
(g3
g4
Ntp119
Rp120
(lp121
F20.503507614135742
aF14.734752655029297
aF0.0
abaF177.69628562618954
ag73
aa(lp122
g2
(g3
g4
Ntp123
Rp124
(lp125
F13.377723693847656
aF14.046330451965332
aF0.0
abaF177.82137997201596
ag73
aa(lp126
g2
(g3
g4
Ntp127
Rp128
(lp129
F44.684024810791016
aF29.328105926513672
aF0.0
abaF178.96960631513383
ag73
aa(lp130
g2
(g3
g4
Ntp131
Rp132
(lp133
F60.89833068847656
aF29.956378936767578
aF0.0
abaF-91.4378500609364
ag73
aa(lp134
g2
(g3
g4
Ntp135
Rp136
(lp137
F29.92403221130371
aF15.435251235961914
aF0.0
abaF-2.6613080253441243e-05
aS'T junction'
p138
aa(lp139
g2
(g3
g4
Ntp140
Rp141
(lp142
F33.76470184326172
aF15.44732666015625
aF0.0
abaF-179.7813537659434
ag138
aa(lp143
g2
(g3
g4
Ntp144
Rp145
(lp146
F31.977214813232422
aF18.068166732788086
aF0.0
abaF-86.331943113766
ag138
aa(lp147
g2
(g3
g4
Ntp148
Rp149
(lp150
F31.783985137939453
aF26.293004989624023
aF0.0
abaF91.03227260432756
ag138
aa(lp151
g2
(g3
g4
Ntp152
Rp153
(lp154
F34.07585144042969
aF29.08646011352539
aF0.0
abaF180.0
ag138
aa(lp155
g2
(g3
g4
Ntp156
Rp157
(lp158
F29.70209503173828
aF28.409854888916016
aF0.0
abaF0.0
ag138
aa(lp159
g2
(g3
g4
Ntp160
Rp161
(lp162
F59.41749954223633
aF16.751708984375
aF0.0
abaF1.5911472476082311
aS'Corner, Left Turn'
p163
aa(lp164
g2
(g3
g4
Ntp165
Rp166
(lp167
F60.60835266113281
aF27.829914093017578
aF0.0
abaF91.666172003764
ag163
aa(lp168
g2
(g3
g4
Ntp169
Rp170
(lp171
F6.300270080566406
aF27.16259002685547
aF0.0
abaF-174.74623370080386
ag163
aa(lp172
g2
(g3
g4
Ntp173
Rp174
(lp175
F4.391998291015625
aF16.07536506652832
aF0.0
abaF-88.03607420959604
ag163
aa(lp176
g2
(g3
g4
Ntp177
Rp178
(lp179
F6.251956939697266
aF14.118795394897461
aF0.0
abaF-177.7687674873065
aS'Corner, Right turn'
p180
aa(lp181
g2
(g3
g4
Ntp182
Rp183
(lp184
F4.271232604980469
aF24.831613540649414
aF0.0
abaF85.54364983432403
ag180
aa(lp185
g2
(g3
g4
Ntp186
Rp187
(lp188
F58.31275177001953
aF29.79930877685547
aF0.0
abaF-1.5187917790861962
ag180
aa(lp189
g2
(g3
g4
Ntp190
Rp191
(lp192
F60.96343994140625
aF19.614097595214844
aF0.0
abaF-88.65733347189983
ag180
aa(lp193
g2
(g3
g4
Ntp194
Rp195
(lp196
F58.554386138916016
aF30.01679229736328
aF0.0
abaF-178.86123191563595
aS'Long Corridor'
p197
aa(lp198
g2
(g3
g4
Ntp199
Rp200
(lp201
F34.26917266845703
aF29.08646011352539
aF0.0
abaF-0.255679561034276
ag197
aa(lp202
g2
(g3
g4
Ntp203
Rp204
(lp205
F29.36380386352539
aF28.68775177001953
aF0.0
abaF-178.77239994965484
ag197
aa(lp206
g2
(g3
g4
Ntp207
Rp208
(lp209
F5.503139495849609
aF27.24713134765625
aF0.0
abaF1.1935726455290665
ag197
aa(lp210
g2
(g3
g4
Ntp211
Rp212
(lp213
F6.710899353027344
aF13.901395797729492
aF0.0
abaF3.6109474367661587
ag197
aa(lp214
g2
(g3
g4
Ntp215
Rp216
(lp217
F30.141429901123047
aF15.435251235961914
aF0.0
abaF178.96958723534155
ag197
aa(lp218
g2
(g3
g4
Ntp219
Rp220
(lp221
F33.909637451171875
aF15.507719039916992
aF0.0
abaF-1.1458467738678009
ag197
aa(lp222
g2
(g3
g4
Ntp223
Rp224
(lp225
F59.29673385620117
aF16.522233963012695
aF0.0
abaF176.9334627115153
ag197
aa(lp226
g2
(g3
g4
Ntp227
Rp228
(lp229
F60.91511917114258
aF19.312158584594727
aF0.0
abaF87.86279853639793
aS'Narrow Corridor'
p230
aa(lp231
g2
(g3
g4
Ntp232
Rp233
(lp234
F60.89833068847656
aF27.902408599853516
aF0.0
abaF-91.16772700077536
ag230
aa(lp235
g2
(g3
g4
Ntp236
Rp237
(lp238
F32.02553176879883
aF18.152706146240234
aF0.0
abaF90.73698247479865
ag230
aa(lp239
g2
(g3
g4
Ntp240
Rp241
(lp242
F31.783985137939453
aF26.293004989624023
aF0.0
abaF-86.24849611096681
ag230
aa(lp243
g2
(g3
g4
Ntp244
Rp245
(lp246
F4.271228790283203
aF24.747072219848633
aF0.0
abaF-91.88815198764122
ag230
aa(lp247
g2
(g3
g4
Ntp248
Rp249
(lp250
F4.392002105712891
aF16.377304077148438
aF0.0
abaF89.3888328102276
ag230
aa(lp251
g2
(g3
g4
Ntp252
Rp253
(lp254
F32.04967498779297
aF26.1480712890625
aF0.0
abaF89.05036733818747
aS'Turn Left or Right'
p255
aa(lp256
g2
(g3
g4
Ntp257
Rp258
(lp259
F32.02553176879883
aF17.99570083618164
aF0.0
abaF-89.99999999999999
ag255
aa(lp260
g2
(g3
g4
Ntp261
Rp262
(lp263
F28.783851623535156
aF28.54276466369629
aF0.0
abaF0.18477908862537004
aS'Go Forward or Right'
p264
aa(lp265
g2
(g3
g4
Ntp266
Rp267
(lp268
F34.247802734375
aF15.44732666015625
aF0.0
abaF-176.03541943019698
ag264
aa(lp269
g2
(g3
g4
Ntp270
Rp271
(lp272
F30.2380428314209
aF15.350709915161133
aF0.0
abaF1.7898366760993023
aS'Go left or Forward'
p273
aa(lp274
g2
(g3
g4
Ntp275
Rp276
(lp277
F33.97919464111328
aF28.929393768310547
aF0.0
abaF-177.97527547361653
ag273
aa.