(lp0
(lp1
ccopy_reg
_reconstructor
p2
(cgeometry_msgs.msg._Point
Point
p3
c__builtin__
object
p4
Ntp5
Rp6
(lp7
F6.183076858520508
aF8.754631042480469
aF0.0
abaF89.21921892969166
aS'T junction'
p8
aa(lp9
g2
(g3
g4
Ntp10
Rp11
(lp12
F7.732089519500732
aF9.952534675598145
aF0.0
abaF-179.68568766003708
ag8
aa(lp13
g2
(g3
g4
Ntp14
Rp15
(lp16
F6.059155464172363
aF11.470568656921387
aF0.0
abaF-89.70619146533186
ag8
aa(lp17
g2
(g3
g4
Ntp18
Rp19
(lp20
F11.907546997070312
aF10.196934700012207
aF0.0
abaF-0.40303906080565216
ag8
aa(lp21
g2
(g3
g4
Ntp22
Rp23
(lp24
F13.460003852844238
aF11.608258247375488
aF0.0
abaF-90.0739989411354
ag8
aa(lp25
g2
(g3
g4
Ntp26
Rp27
(lp28
F13.521965026855469
aF8.420732498168945
aF0.0
abaF89.66259772262438
ag8
aa(lp29
g2
(g3
g4
Ntp30
Rp31
(lp32
F13.236258506774902
aF13.976531982421875
aF0.0
abaF178.03828330507963
aS'Corner, Left Turn'
p33
aa(lp34
g2
(g3
g4
Ntp35
Rp36
(lp37
F6.0316162109375
aF13.14694881439209
aF0.0
abaF-89.2986454420204
ag33
aa(lp38
g2
(g3
g4
Ntp39
Rp40
(lp41
F7.5083441734313965
aF5.918211936950684
aF0.0
abaF-1.942477655026509
ag33
aa(lp42
g2
(g3
g4
Ntp43
Rp44
(lp45
F12.141620635986328
aF5.677253246307373
aF0.0
abaF-0.5804261118617926
ag33
aa(lp46
g2
(g3
g4
Ntp47
Rp48
(lp49
F13.243141174316406
aF12.77518367767334
aF0.0
abaF-90.47694478446495
aS'Corner, Right turn'
p50
aa(lp51
g2
(g3
g4
Ntp52
Rp53
(lp54
F12.568459510803223
aF5.615294933319092
aF0.0
abaF178.82897628536597
ag50
aa(lp55
g2
(g3
g4
Ntp56
Rp57
(lp58
F6.637454986572266
aF6.9371185302734375
aF0.0
abaF89.73383551242243
ag50
aa(lp59
g2
(g3
g4
Ntp60
Rp61
(lp62
F6.4928789138793945
aF14.035049438476562
aF0.0
abaF2.5208306829991547
ag50
aa(lp63
g2
(g3
g4
Ntp64
Rp65
(lp66
F6.248479843139648
aF6.861391067504883
aF0.0
abaF-3.666027797454888
aS'Long Corridor'
p67
aa(lp68
g2
(g3
g4
Ntp69
Rp70
(lp71
F13.098567962646484
aF6.073113441467285
aF0.0
abaF179.57693387785687
ag67
aa(lp72
g2
(g3
g4
Ntp73
Rp74
(lp75
F6.88185453414917
aF14.148645401000977
aF0.0
abaF-0.963849969646172
ag67
aa(lp76
g2
(g3
g4
Ntp77
Rp78
(lp79
F13.153644561767578
aF14.024723052978516
aF0.0
abaF176.9384725553316
ag67
aa(lp80
g2
(g3
g4
Ntp81
Rp82
(lp83
F13.694077491760254
aF8.372540473937988
aF0.0
abaF-1.3136650599740007
aS'Turn Left or Right'
p84
aa(lp85
g2
(g3
g4
Ntp86
Rp87
(lp88
F12.038352966308594
aF10.279548645019531
aF0.0
abaF-0.1911330600149086
ag84
aa(lp89
g2
(g3
g4
Ntp90
Rp91
(lp92
F7.687342166900635
aF10.038591384887695
aF0.0
abaF178.95119586688696
ag84
aa(lp93
g2
(g3
g4
Ntp94
Rp95
(lp96
F6.403380393981934
aF7.587706565856934
aF0.0
abaF92.7480383116627
aS'Go Forward or Right'
p97
aa(lp98
g2
(g3
g4
Ntp99
Rp100
(lp101
F13.236257553100586
aF12.603071212768555
aF0.0
abaF-89.9466588843886
ag97
aa(lp102
g2
(g3
g4
Ntp103
Rp104
(lp105
F6.097018241882324
aF12.455055236816406
aF0.0
abaF-91.45477527049628
aS'Go left or Forward'
p106
aa(lp107
g2
(g3
g4
Ntp108
Rp109
(lp110
F13.790460586547852
aF7.467226505279541
aF0.0
abaF89.11599184736178
ag106
aa.