(lp0
(lp1
ccopy_reg
_reconstructor
p2
(cgeometry_msgs.msg._Point
Point
p3
c__builtin__
object
p4
Ntp5
Rp6
(lp7
F12.131019592285156
aF12.796365737915039
aF0.0
abaF92.48963675209026
aS'room'
p8
aa(lp9
g2
(g3
g4
Ntp10
Rp11
(lp12
F19.7860107421875
aF13.01330852508545
aF0.0
abaF89.4969347352989
ag8
aa(lp13
g2
(g3
g4
Ntp14
Rp15
(lp16
F25.436260223388672
aF13.394303321838379
aF0.0
abaF93.37313731111007
ag8
aa(lp17
g2
(g3
g4
Ntp18
Rp19
(lp20
F33.79125213623047
aF13.812052726745605
aF0.0
abaF89.8923380511009
ag8
aa(lp21
g2
(g3
g4
Ntp22
Rp23
(lp24
F41.40357971191406
aF14.245274543762207
aF0.0
abaF88.81633737400207
ag8
aa(lp25
g2
(g3
g4
Ntp26
Rp27
(lp28
F43.12289047241211
aF14.361456871032715
aF0.0
abaF90.19594779798541
ag8
aa(lp29
g2
(g3
g4
Ntp30
Rp31
(lp32
F48.918373107910156
aF14.485424995422363
aF0.0
abaF88.57561035251248
ag8
aa(lp33
g2
(g3
g4
Ntp34
Rp35
(lp36
F62.167755126953125
aF28.240367889404297
aF0.0
abaF-178.82599643889355
ag8
aa(lp37
g2
(g3
g4
Ntp38
Rp39
(lp40
F40.97890090942383
aF30.904693603515625
aF0.0
abaF-91.13363599671895
ag8
aa(lp41
g2
(g3
g4
Ntp42
Rp43
(lp44
F33.43257141113281
aF30.546092987060547
aF0.0
abaF-89.41251587962333
ag8
aa(lp45
g2
(g3
g4
Ntp46
Rp47
(lp48
F27.670028686523438
aF30.20187759399414
aF0.0
abaF-91.86770618010274
ag8
aa(lp49
g2
(g3
g4
Ntp50
Rp51
(lp52
F19.294677734375
aF29.719284057617188
aF0.0
abaF-88.56508526777328
ag8
aa(lp53
g2
(g3
g4
Ntp54
Rp55
(lp56
F11.697708129882812
aF29.345664978027344
aF0.0
abaF-91.69664557105023
ag8
aa(lp57
g2
(g3
g4
Ntp58
Rp59
(lp60
F9.549388885498047
aF29.407936096191406
aF0.0
abaF-91.9774232883186
ag8
aa(lp61
g2
(g3
g4
Ntp62
Rp63
(lp64
F42.86397171020508
aF27.6799373626709
aF0.0
abaF93.80856654809446
ag8
aa(lp65
g2
(g3
g4
Ntp66
Rp67
(lp68
F43.26447296142578
aF17.504344940185547
aF0.0
abaF-86.88733103451077
ag8
aa(lp69
g2
(g3
g4
Ntp70
Rp71
(lp72
F31.499649047851562
aF28.754100799560547
aF0.0
abaF89.99997757217574
aS'T junction'
p73
aa(lp74
g2
(g3
g4
Ntp75
Rp76
(lp77
F32.4616813659668
aF15.275713920593262
aF0.0
abaF-89.68074137058714
ag73
aa(lp78
g2
(g3
g4
Ntp79
Rp80
(lp81
F60.312477111816406
aF29.782106399536133
aF0.0
abaF49.64802120347272
aS'Corner'
p82
aa(lp83
g2
(g3
g4
Ntp84
Rp85
(lp86
F60.925933837890625
aF17.038753509521484
aF0.0
abaF-49.321908416647005
ag82
aa(lp87
g2
(g3
g4
Ntp88
Rp89
(lp90
F5.167673110961914
aF14.090550422668457
aF0.0
abaF-132.4920399406069
ag82
aa(lp91
g2
(g3
g4
Ntp92
Rp93
(lp94
F4.516357421875
aF26.579025268554688
aF0.0
abaF116.26127103156374
ag82
aa.