(lp0
(lp1
ccopy_reg
_reconstructor
p2
(cgeometry_msgs.msg._Point
Point
p3
c__builtin__
object
p4
Ntp5
Rp6
(lp7
F9.79557991027832
aF8.495176315307617
aF0.0
abaF88.36615750197569
aS'room'
p8
aa(lp9
g2
(g3
g4
Ntp10
Rp11
(lp12
F12.259958267211914
aF8.601170539855957
aF0.0
abaF91.50433035567065
ag8
aa(lp13
g2
(g3
g4
Ntp14
Rp15
(lp16
F22.673959732055664
aF8.654168128967285
aF0.0
abaF88.89248726807885
ag8
aa(lp17
g2
(g3
g4
Ntp18
Rp19
(lp20
F25.164840698242188
aF8.574671745300293
aF0.0
abaF89.39124807423045
ag8
aa(lp21
g2
(g3
g4
Ntp22
Rp23
(lp24
F34.67788314819336
aF8.70716667175293
aF0.0
abaF95.0212361447716
ag8
aa(lp25
g2
(g3
g4
Ntp26
Rp27
(lp28
F37.5219841003418
aF8.908241271972656
aF0.0
abaF88.29744984695739
ag8
aa(lp29
g2
(g3
g4
Ntp30
Rp31
(lp32
F43.581451416015625
aF8.53492259979248
aF0.0
abaF87.63562543240887
ag8
aa(lp33
g2
(g3
g4
Ntp34
Rp35
(lp36
F21.13080406188965
aF12.073616027832031
aF0.0
abaF-91.53738942727918
ag8
aa(lp37
g2
(g3
g4
Ntp38
Rp39
(lp40
F5.581438064575195
aF11.781237602233887
aF0.0
abaF-91.42804919501846
ag8
aa(lp41
g2
(g3
g4
Ntp42
Rp43
(lp44
F0.8070011138916016
aF4.6305742263793945
aF0.0
abaF-0.36723046257475034
ag8
aa(lp45
g2
(g3
g4
Ntp46
Rp47
(lp48
F5.660552978515625
aF27.7120361328125
aF0.0
abaF85.46728145062544
ag8
aa(lp49
g2
(g3
g4
Ntp50
Rp51
(lp52
F6.970418930053711
aF31.37200355529785
aF0.0
abaF-91.56436240637315
ag8
aa(lp53
g2
(g3
g4
Ntp54
Rp55
(lp56
F10.634408950805664
aF31.37200164794922
aF0.0
abaF-90.4735955931933
ag8
aa(lp57
g2
(g3
g4
Ntp58
Rp59
(lp60
F14.886777877807617
aF31.35862922668457
aF0.0
abaF-90.53768124821285
ag8
aa(lp61
g2
(g3
g4
Ntp62
Rp63
(lp64
F19.540313720703125
aF31.278396606445312
aF0.0
abaF-91.19475922096588
ag8
aa(lp65
g2
(g3
g4
Ntp66
Rp67
(lp68
F29.00785255432129
aF31.35863494873047
aF0.0
abaF-91.52799596343718
ag8
aa(lp69
g2
(g3
g4
Ntp70
Rp71
(lp72
F32.64509201049805
aF31.492351531982422
aF0.0
abaF-93.03296441802182
ag8
aa(lp73
g2
(g3
g4
Ntp74
Rp75
(lp76
F36.73699951171875
aF31.37200164794922
aF0.0
abaF-90.61382109811962
ag8
aa(lp77
g2
(g3
g4
Ntp78
Rp79
(lp80
F41.55099868774414
aF31.39875030517578
aF0.0
abaF-90.65393349461046
ag8
aa(lp81
g2
(g3
g4
Ntp82
Rp83
(lp84
F45.80337142944336
aF31.31852149963379
aF0.0
abaF-89.25693266217647
ag8
aa(lp85
g2
(g3
g4
Ntp86
Rp87
(lp88
F42.92255783081055
aF45.55760955810547
aF0.0
abaF-92.20255002524165
ag8
aa(lp89
g2
(g3
g4
Ntp90
Rp91
(lp92
F39.91788864135742
aF45.342987060546875
aF0.0
abaF-94.43276190664682
ag8
aa(lp93
g2
(g3
g4
Ntp94
Rp95
(lp96
F52.84868621826172
aF40.876216888427734
aF0.0
abaF180.0
ag8
aa(lp97
g2
(g3
g4
Ntp98
Rp99
(lp100
F30.63561248779297
aF45.57101821899414
aF0.0
abaF-89.99999999999999
ag8
aa(lp101
g2
(g3
g4
Ntp102
Rp103
(lp104
F27.765079498291016
aF45.342987060546875
aF0.0
abaF-87.9098302256757
ag8
aa(lp105
g2
(g3
g4
Ntp106
Rp107
(lp108
F21.863056182861328
aF45.2088508605957
aF0.0
abaF-89.99992884633217
ag8
aa(lp109
g2
(g3
g4
Ntp110
Rp111
(lp112
F12.366161346435547
aF45.329566955566406
aF0.0
abaF-91.64440922823046
ag8
aa(lp113
g2
(g3
g4
Ntp114
Rp115
(lp116
F3.9587268829345703
aF38.735076904296875
aF0.0
abaF179.99989402916813
ag8
aa(lp117
g2
(g3
g4
Ntp118
Rp119
(lp120
F21.85167694091797
aF38.66810607910156
aF0.0
abaF0.23880738779472738
ag8
aa(lp121
g2
(g3
g4
Ntp122
Rp123
(lp124
F26.324913024902344
aF38.37346267700195
aF0.0
abaF178.0906860621226
ag8
aa(lp125
g2
(g3
g4
Ntp126
Rp127
(lp128
F48.44899368286133
aF38.83732986450195
aF0.0
abaF-0.6093636772279902
ag8
aa(lp129
g2
(g3
g4
Ntp130
Rp131
(lp132
F24.072099685668945
aF29.145320892333984
aF0.0
abaF-87.59602425773626
aS't_junction'
p133
aa(lp134
g2
(g3
g4
Ntp135
Rp136
(lp137
F50.751094818115234
aF30.101640701293945
aF0.0
abaF2.121097516166946
ag133
aa(lp138
g2
(g3
g4
Ntp139
Rp140
(lp141
F24.277523040771484
aF43.854061126708984
aF0.0
abaF90.5932916492749
ag133
aa(lp142
g2
(g3
g4
Ntp143
Rp144
(lp145
F2.602733612060547
aF29.399005889892578
aF0.0
abaF178.1282518911987
ag133
aa(lp146
g2
(g3
g4
Ntp147
Rp148
(lp149
F2.32293701171875
aF9.793614387512207
aF0.0
abaF178.02509978513697
ag133
aa(lp150
g2
(g3
g4
Ntp151
Rp152
(lp153
F50.219608306884766
aF44.18941116333008
aF0.0
abaF29.597942858765254
aS'corner'
p154
aa(lp155
g2
(g3
g4
Ntp156
Rp157
(lp158
F50.63475036621094
aF10.213008880615234
aF0.0
abaF-37.391445923658054
ag154
aa(lp159
g2
(g3
g4
Ntp160
Rp161
(lp162
F3.0838871002197266
aF43.62602615356445
aF0.0
abaF147.3634633784818
ag154
aa.