(lp0
(lp1
ccopy_reg
_reconstructor
p2
(cgeometry_msgs.msg._Point
Point
p3
c__builtin__
object
p4
Ntp5
Rp6
(lp7
F3.9428062438964844
aF7.670578479766846
aF0.0
abaF-88.54243257118182
aS'close_room'
p8
aa(lp9
g2
(g3
g4
Ntp10
Rp11
(lp12
F9.511127471923828
aF8.033927917480469
aF0.0
abaF-87.0186548098244
ag8
aa(lp13
g2
(g3
g4
Ntp14
Rp15
(lp16
F67.14215850830078
aF13.671956062316895
aF0.0
abaF179.06083623630278
ag8
aa(lp17
g2
(g3
g4
Ntp18
Rp19
(lp20
F10.211565017700195
aF5.131283283233643
aF0.0
abaF91.44551050381268
aS'open_room'
p21
aa(lp22
g2
(g3
g4
Ntp23
Rp24
(lp25
F18.73493194580078
aF5.455211639404297
aF0.0
abaF92.94406726931022
ag21
aa(lp26
g2
(g3
g4
Ntp27
Rp28
(lp29
F25.37546157836914
aF5.895550727844238
aF0.0
abaF93.69139158011605
ag21
aa(lp30
g2
(g3
g4
Ntp31
Rp32
(lp33
F34.70864486694336
aF6.2296037673950195
aF0.0
abaF92.68795258280012
ag21
aa(lp34
g2
(g3
g4
Ntp35
Rp36
(lp37
F43.5761833190918
aF6.578835964202881
aF0.0
abaF95.69052416067574
ag21
aa(lp38
g2
(g3
g4
Ntp39
Rp40
(lp41
F45.540000915527344
aF6.558591365814209
aF0.0
abaF90.6178086254831
ag21
aa(lp42
g2
(g3
g4
Ntp43
Rp44
(lp45
F52.180519104003906
aF6.740801811218262
aF0.0
abaF94.32733675922579
ag21
aa(lp46
g2
(g3
g4
Ntp47
Rp48
(lp49
F66.54609680175781
aF19.109363555908203
aF0.0
abaF179.55242587379362
ag21
aa(lp50
g2
(g3
g4
Ntp51
Rp52
(lp53
F42.95106887817383
aF21.144813537597656
aF0.0
abaF-85.97178745860658
ag21
aa(lp54
g2
(g3
g4
Ntp55
Rp56
(lp57
F34.383941650390625
aF20.886585235595703
aF0.0
abaF-88.30902932945769
ag21
aa(lp58
g2
(g3
g4
Ntp59
Rp60
(lp61
F27.76113510131836
aF20.58785057067871
aF0.0
abaF-89.99999999999999
ag21
aa(lp62
g2
(g3
g4
Ntp63
Rp64
(lp65
F18.24211311340332
aF20.309368133544922
aF0.0
abaF-87.73975179092328
ag21
aa(lp66
g2
(g3
g4
Ntp67
Rp68
(lp69
F9.776254653930664
aF19.965063095092773
aF0.0
abaF-87.01342567114504
ag21
aa(lp70
g2
(g3
g4
Ntp71
Rp72
(lp73
F7.143333435058594
aF19.863794326782227
aF0.0
abaF-88.64814131543604
ag21
aa(lp74
g2
(g3
g4
Ntp75
Rp76
(lp77
F45.74244689941406
aF9.109526634216309
aF0.0
abaF-86.24790981838211
ag21
aa(lp78
g2
(g3
g4
Ntp79
Rp80
(lp81
F45.23967742919922
aF18.50682830810547
aF0.0
abaF91.53769466653381
ag21
aa(lp82
g2
(g3
g4
Ntp83
Rp84
(lp85
F32.13582992553711
aF19.31189727783203
aF0.0
abaF91.20598901809817
aS't_junction'
p86
aa(lp87
g2
(g3
g4
Ntp88
Rp89
(lp90
F32.8460578918457
aF7.383596420288086
aF0.0
abaF-88.08677194920709
ag86
aa(lp91
g2
(g3
g4
Ntp92
Rp93
(lp94
F1.4521675109863281
aF17.884042739868164
aF0.0
abaF122.47121345098958
aS'corner'
p95
aa(lp96
g2
(g3
g4
Ntp97
Rp98
(lp99
F2.1740989685058594
aF6.502917289733887
aF0.0
abaF-136.74756395667018
ag95
aa(lp100
g2
(g3
g4
Ntp101
Rp102
(lp103
F65.56282043457031
aF8.795721054077148
aF0.0
abaF-42.683022243277954
ag95
aa(lp104
g2
(g3
g4
Ntp105
Rp106
(lp107
F64.82456970214844
aF20.471393585205078
aF0.0
abaF41.76900111866172
ag95
aa.