(lp0
(lp1
ccopy_reg
_reconstructor
p2
(cgeometry_msgs.msg._Point
Point
p3
c__builtin__
object
p4
Ntp5
Rp6
(lp7
F6.6543121337890625
aF3.3729097843170166
aF0.0
abaF93.36157165207703
aS'room'
p8
aa(lp9
g2
(g3
g4
Ntp10
Rp11
(lp12
F12.2982816696167
aF3.7013649940490723
aF0.0
abaF91.34735319950674
ag8
aa(lp13
g2
(g3
g4
Ntp14
Rp15
(lp16
F16.682851791381836
aF3.9034903049468994
aF0.0
abaF92.1063810983889
ag8
aa(lp17
g2
(g3
g4
Ntp18
Rp19
(lp20
F22.809240341186523
aF4.113614559173584
aF0.0
abaF88.74991756397253
ag8
aa(lp21
g2
(g3
g4
Ntp22
Rp23
(lp24
F28.53533172607422
aF4.28477668762207
aF0.0
abaF90.62105512515525
ag8
aa(lp25
g2
(g3
g4
Ntp26
Rp27
(lp28
F29.941621780395508
aF4.4155473709106445
aF0.0
abaF90.69861919011605
ag8
aa(lp29
g2
(g3
g4
Ntp30
Rp31
(lp32
F34.317344665527344
aF4.54012393951416
aF0.0
abaF91.8551947298153
ag8
aa(lp33
g2
(g3
g4
Ntp34
Rp35
(lp36
F29.994274139404297
aF6.161402702331543
aF0.0
abaF-88.41875387944681
ag8
aa(lp37
g2
(g3
g4
Ntp38
Rp39
(lp40
F43.867919921875
aF12.544452667236328
aF0.0
abaF-179.4193372856742
ag8
aa(lp41
g2
(g3
g4
Ntp42
Rp43
(lp44
F29.699737548828125
aF12.285877227783203
aF0.0
abaF92.30408739508269
ag8
aa(lp45
g2
(g3
g4
Ntp46
Rp47
(lp48
F28.17810821533203
aF13.980630874633789
aF0.0
abaF-90.1776944928103
ag8
aa(lp49
g2
(g3
g4
Ntp50
Rp51
(lp52
F22.56195831298828
aF13.92000961303711
aF0.0
abaF-86.78432091680813
ag8
aa(lp53
g2
(g3
g4
Ntp54
Rp55
(lp56
F18.24424934387207
aF13.828104019165039
aF0.0
abaF-85.59081407919513
ag8
aa(lp57
g2
(g3
g4
Ntp58
Rp59
(lp60
F11.994587898254395
aF13.572248458862305
aF0.0
abaF-88.18908648196212
ag8
aa(lp61
g2
(g3
g4
Ntp62
Rp63
(lp64
F6.382757186889648
aF13.359264373779297
aF0.0
abaF-86.66887875751117
ag8
aa(lp65
g2
(g3
g4
Ntp66
Rp67
(lp68
F4.647617340087891
aF13.324091911315918
aF0.0
abaF-87.5511978921196
ag8
aa(lp69
g2
(g3
g4
Ntp70
Rp71
(lp72
F21.124454498291016
aF12.451838493347168
aF0.0
abaF91.43775053875915
aS'T junction'
p73
aa(lp74
g2
(g3
g4
Ntp75
Rp76
(lp77
F21.595558166503906
aF5.185313701629639
aF0.0
abaF-88.41836945586932
ag73
aa(lp78
g2
(g3
g4
Ntp79
Rp80
(lp81
F42.664344787597656
aF13.247322082519531
aF0.0
abaF46.91810001451581
aS'Corner'
p82
aa(lp83
g2
(g3
g4
Ntp84
Rp85
(lp86
F43.19383239746094
aF5.806869029998779
aF0.0
abaF-41.27785983588202
ag82
aa(lp87
g2
(g3
g4
Ntp88
Rp89
(lp90
F1.321298599243164
aF4.346612930297852
aF0.0
abaF-124.31652024670058
ag82
aa(lp91
g2
(g3
g4
Ntp92
Rp93
(lp94
F1.0217304229736328
aF11.417021751403809
aF0.0
abaF117.68991984915685
ag82
aa.