(lp0
(lp1
ccopy_reg
_reconstructor
p2
(cgeometry_msgs.msg._Point
Point
p3
c__builtin__
object
p4
Ntp5
Rp6
(lp7
F43.436744689941406
aF27.851848602294922
aF0.0
abaF93.64627409288984
aS'close_room'
p8
aa(lp9
g2
(g3
g4
Ntp10
Rp11
(lp12
F32.745418548583984
aF27.897184371948242
aF0.0
abaF90.78142370962017
ag8
aa(lp13
g2
(g3
g4
Ntp14
Rp15
(lp16
F12.385969161987305
aF45.26437759399414
aF0.0
abaF-90.00012928710738
aS'open_room'
p17
aa(lp18
g2
(g3
g4
Ntp19
Rp20
(lp21
F21.92241859436035
aF45.231868743896484
aF0.0
abaF-89.99991417558377
ag17
aa(lp22
g2
(g3
g4
Ntp23
Rp24
(lp25
F27.99106788635254
aF45.329402923583984
aF0.0
abaF-86.89195835995247
ag17
aa(lp26
g2
(g3
g4
Ntp27
Rp28
(lp29
F30.700286865234375
aF45.38358688354492
aF0.0
abaF-91.42616431745172
ag17
aa(lp30
g2
(g3
g4
Ntp31
Rp32
(lp33
F40.34510803222656
aF45.361907958984375
aF0.0
abaF-87.81166010229606
ag17
aa(lp34
g2
(g3
g4
Ntp35
Rp36
(lp37
F43.0109748840332
aF45.351078033447266
aF0.0
abaF-90.64030009265721
ag17
aa(lp38
g2
(g3
g4
Ntp39
Rp40
(lp41
F52.78583526611328
aF40.691219329833984
aF0.0
abaF-178.58561211845497
ag17
aa(lp42
g2
(g3
g4
Ntp43
Rp44
(lp45
F43.6395149230957
aF8.559890747070312
aF0.0
abaF89.87552735374877
ag17
aa(lp46
g2
(g3
g4
Ntp47
Rp48
(lp49
F37.462493896484375
aF8.733280181884766
aF0.0
abaF90.59323737399758
ag17
aa(lp50
g2
(g3
g4
Ntp51
Rp52
(lp53
F34.66658020019531
aF8.624916076660156
aF0.0
abaF89.98137614129976
ag17
aa(lp54
g2
(g3
g4
Ntp55
Rp56
(lp57
F25.10846519470215
aF8.679100036621094
aF0.0
abaF90.41707507750897
ag17
aa(lp58
g2
(g3
g4
Ntp59
Rp60
(lp61
F22.50760841369629
aF8.581565856933594
aF0.0
abaF90.54547570099477
ag17
aa(lp62
g2
(g3
g4
Ntp63
Rp64
(lp65
F12.385974884033203
aF8.679098129272461
aF0.0
abaF90.93276297671034
ag17
aa(lp66
g2
(g3
g4
Ntp67
Rp68
(lp69
F9.69843864440918
aF8.679100036621094
aF0.0
abaF89.19882816528433
ag17
aa(lp70
g2
(g3
g4
Ntp71
Rp72
(lp73
F1.1863040924072266
aF4.444782257080078
aF0.0
abaF0.545635519697593
ag17
aa(lp74
g2
(g3
g4
Ntp75
Rp76
(lp77
F5.723844528198242
aF11.639251708984375
aF0.0
abaF-92.86645166426818
ag17
aa(lp78
g2
(g3
g4
Ntp79
Rp80
(lp81
F21.253528594970703
aF11.623071670532227
aF0.0
abaF-88.48307754517683
ag17
aa(lp82
g2
(g3
g4
Ntp83
Rp84
(lp85
F5.56207275390625
aF27.848356246948242
aF0.0
abaF89.27005198409984
ag17
aa(lp86
g2
(g3
g4
Ntp87
Rp88
(lp89
F6.079736709594727
aF31.391063690185547
aF0.0
abaF-89.07958660298891
ag17
aa(lp90
g2
(g3
g4
Ntp91
Rp92
(lp93
F11.223943710327148
aF31.310184478759766
aF0.0
abaF-87.73961953696814
ag17
aa(lp94
g2
(g3
g4
Ntp95
Rp96
(lp97
F15.624025344848633
aF31.2454776763916
aF0.0
abaF-89.2750138012307
ag17
aa(lp98
g2
(g3
g4
Ntp99
Rp100
(lp101
F19.732913970947266
aF31.245479583740234
aF0.0
abaF-88.48272739896692
ag17
aa(lp102
g2
(g3
g4
Ntp103
Rp104
(lp105
F29.79485321044922
aF31.132238388061523
aF0.0
abaF-90.00007548115141
ag17
aa(lp106
g2
(g3
g4
Ntp107
Rp108
(lp109
F31.768413543701172
aF31.196945190429688
aF0.0
abaF-89.22562257125537
ag17
aa(lp110
g2
(g3
g4
Ntp111
Rp112
(lp113
F36.23320388793945
aF31.277828216552734
aF0.0
abaF-86.59367072975576
ag17
aa(lp114
g2
(g3
g4
Ntp115
Rp116
(lp117
F40.40680694580078
aF31.132240295410156
aF0.0
abaF-86.87809887926124
ag17
aa(lp118
g2
(g3
g4
Ntp119
Rp120
(lp121
F44.90394592285156
aF31.294002532958984
aF0.0
abaF-84.80566453495427
ag17
aa(lp122
g2
(g3
g4
Ntp123
Rp124
(lp125
F48.78636169433594
aF38.525020599365234
aF0.0
abaF-1.2732801008166876
ag17
aa(lp126
g2
(g3
g4
Ntp127
Rp128
(lp129
F26.041851043701172
aF38.57354736328125
aF0.0
abaF-175.97168699376587
ag17
aa(lp130
g2
(g3
g4
Ntp131
Rp132
(lp133
F22.03000831604004
aF38.67060852050781
aF0.0
abaF2.227010117793013
ag17
aa(lp134
g2
(g3
g4
Ntp135
Rp136
(lp137
F3.94439697265625
aF38.63825225830078
aF0.0
abaF179.60762760212808
ag17
aa(lp138
g2
(g3
g4
Ntp139
Rp140
(lp141
F24.197696685791016
aF38.67060470581055
aF0.0
abaF92.79269635185503
aS'4_junction'
p142
aa(lp143
g2
(g3
g4
Ntp144
Rp145
(lp146
F24.262405395507812
aF29.46603012084961
aF0.0
abaF-88.50574476587512
aS't_junction'
p147
aa(lp148
g2
(g3
g4
Ntp149
Rp150
(lp151
F24.23004913330078
aF43.7501106262207
aF0.0
abaF89.1872311983839
ag147
aa(lp152
g2
(g3
g4
Ntp153
Rp154
(lp155
F3.070852279663086
aF29.546916961669922
aF0.0
abaF179.71633550732423
ag147
aa(lp156
g2
(g3
g4
Ntp157
Rp158
(lp159
F50.662864685058594
aF29.918983459472656
aF0.0
abaF1.5146785857445677
ag147
aa(lp160
g2
(g3
g4
Ntp161
Rp162
(lp163
F2.544126510620117
aF9.81137466430664
aF0.0
abaF174.93061193240922
ag147
aa(lp164
g2
(g3
g4
Ntp165
Rp166
(lp167
F2.7473220825195312
aF43.79863357543945
aF0.0
abaF141.6510800470258
aS'corner'
p168
aa(lp169
g2
(g3
g4
Ntp170
Rp171
(lp172
F50.59815979003906
aF43.717750549316406
aF0.0
abaF33.8400687734198
ag168
aa(lp173
g2
(g3
g4
Ntp174
Rp175
(lp176
F50.520137786865234
aF10.280141830444336
aF0.0
abaF-38.74099428133256
ag168
aa.