(lp0
(lp1
ccopy_reg
_reconstructor
p2
(cgeometry_msgs.msg._Point
Point
p3
c__builtin__
object
p4
Ntp5
Rp6
(lp7
F3.9428062438964844
aF7.670578479766846
aF0.0
abaF-88.54243257118182
aS'close_room'
p8
aa(lp9
g2
(g3
g4
Ntp10
Rp11
(lp12
F9.511127471923828
aF8.033927917480469
aF0.0
abaF-87.0186548098244
ag8
aa(lp13
g2
(g3
g4
Ntp14
Rp15
(lp16
F67.14215850830078
aF13.671956062316895
aF0.0
abaF179.06083623630278
ag8
aa(lp17
g2
(g3
g4
Ntp18
Rp19
(lp20
F10.211565017700195
aF5.131283283233643
aF0.0
abaF91.44551050381268
aS'open_room'
p21
aa(lp22
g2
(g3
g4
Ntp23
Rp24
(lp25
F18.73493194580078
aF5.455211639404297
aF0.0
abaF92.94406726931022
ag21
aa(lp26
g2
(g3
g4
Ntp27
Rp28
(lp29
F25.37546157836914
aF5.895550727844238
aF0.0
abaF93.69139158011605
ag21
aa(lp30
g2
(g3
g4
Ntp31
Rp32
(lp33
F34.70864486694336
aF6.2296037673950195
aF0.0
abaF92.68795258280012
ag21
aa(lp34
g2
(g3
g4
Ntp35
Rp36
(lp37
F43.5761833190918
aF6.578835964202881
aF0.0
abaF95.69052416067574
ag21
aa(lp38
g2
(g3
g4
Ntp39
Rp40
(lp41
F45.540000915527344
aF6.558591365814209
aF0.0
abaF90.6178086254831
ag21
aa(lp42
g2
(g3
g4
Ntp43
Rp44
(lp45
F52.180519104003906
aF6.740801811218262
aF0.0
abaF94.32733675922579
ag21
aa(lp46
g2
(g3
g4
Ntp47
Rp48
(lp49
F66.54609680175781
aF19.109363555908203
aF0.0
abaF179.55242587379362
ag21
aa(lp50
g2
(g3
g4
Ntp51
Rp52
(lp53
F42.95106887817383
aF21.144813537597656
aF0.0
abaF-85.97178745860658
ag21
aa(lp54
g2
(g3
g4
Ntp55
Rp56
(lp57
F34.383941650390625
aF20.886585235595703
aF0.0
abaF-88.30902932945769
ag21
aa(lp58
g2
(g3
g4
Ntp59
Rp60
(lp61
F27.76113510131836
aF20.58785057067871
aF0.0
abaF-89.99999999999999
ag21
aa(lp62
g2
(g3
g4
Ntp63
Rp64
(lp65
F18.24211311340332
aF20.309368133544922
aF0.0
abaF-87.73975179092328
ag21
aa(lp66
g2
(g3
g4
Ntp67
Rp68
(lp69
F9.776254653930664
aF19.965063095092773
aF0.0
abaF-87.01342567114504
ag21
aa(lp70
g2
(g3
g4
Ntp71
Rp72
(lp73
F7.143333435058594
aF19.863794326782227
aF0.0
abaF-88.64814131543604
ag21
aa(lp74
g2
(g3
g4
Ntp75
Rp76
(lp77
F45.74244689941406
aF9.109526634216309
aF0.0
abaF-86.24790981838211
ag21
aa(lp78
g2
(g3
g4
Ntp79
Rp80
(lp81
F45.23967742919922
aF18.50682830810547
aF0.0
abaF91.53769466653381
ag21
aa(lp82
g2
(g3
g4
Ntp83
Rp84
(lp85
F2.7566118240356445
aF18.03467559814453
aF0.0
abaF-174.805580488908
aS'corridor'
p86
aa(lp87
g2
(g3
g4
Ntp88
Rp89
(lp90
F1.2234230041503906
aF16.541200637817383
aF0.0
abaF80.88864772976758
ag86
aa(lp91
g2
(g3
g4
Ntp92
Rp93
(lp94
F1.4935188293457031
aF7.778983116149902
aF0.0
abaF-84.19709596051183
ag86
aa(lp95
g2
(g3
g4
Ntp96
Rp97
(lp98
F2.8519420623779297
aF6.309343338012695
aF0.0
abaF173.70928835682645
ag86
aa(lp99
g2
(g3
g4
Ntp100
Rp101
(lp102
F30.878341674804688
aF7.2864532470703125
aF0.0
abaF2.752490476066184
ag86
aa(lp103
g2
(g3
g4
Ntp104
Rp105
(lp106
F34.627906799316406
aF7.405613899230957
aF0.0
abaF178.91026909407847
ag86
aa(lp107
g2
(g3
g4
Ntp108
Rp109
(lp110
F32.641910552978516
aF9.200953483581543
aF0.0
abaF-87.38892724625262
ag86
aa(lp111
g2
(g3
g4
Ntp112
Rp113
(lp114
F30.44936752319336
aF19.408987045288086
aF0.0
abaF1.5481449190529653
ag86
aa(lp115
g2
(g3
g4
Ntp116
Rp117
(lp118
F32.37181854248047
aF17.693082809448242
aF0.0
abaF90.13849702566031
ag86
aa(lp119
g2
(g3
g4
Ntp120
Rp121
(lp122
F34.22276306152344
aF19.61553192138672
aF0.0
abaF-179.99987379144866
ag86
aa(lp123
g2
(g3
g4
Ntp124
Rp125
(lp126
F63.538909912109375
aF20.59801483154297
aF0.0
abaF-5.869526719179355
ag86
aa(lp127
g2
(g3
g4
Ntp128
Rp129
(lp130
F65.34999084472656
aF19.10069465637207
aF0.0
abaF100.95375906009511
ag86
aa(lp131
g2
(g3
g4
Ntp132
Rp133
(lp134
F65.76862335205078
aF10.527777671813965
aF0.0
abaF-90.5474580903915
ag86
aa(lp135
g2
(g3
g4
Ntp136
Rp137
(lp138
F64.3064956665039
aF8.572975158691406
aF0.0
abaF9.850867783943073
ag86
aa.