(lp0
(lp1
ccopy_reg
_reconstructor
p2
(cgeometry_msgs.msg._Point
Point
p3
c__builtin__
object
p4
Ntp5
Rp6
(lp7
F12.114431381225586
aF11.170802116394043
aF0.0
abaF94.20555549208095
aS'room'
p8
aa(lp9
g2
(g3
g4
Ntp10
Rp11
(lp12
F14.779191970825195
aF11.253297805786133
aF0.0
abaF89.36310928224587
ag8
aa(lp13
g2
(g3
g4
Ntp14
Rp15
(lp16
F24.840534210205078
aF11.296879768371582
aF0.0
abaF89.71574464012431
ag8
aa(lp17
g2
(g3
g4
Ntp18
Rp19
(lp20
F27.455486297607422
aF11.257967948913574
aF0.0
abaF88.24629958230994
ag8
aa(lp21
g2
(g3
g4
Ntp22
Rp23
(lp24
F36.993839263916016
aF11.32022762298584
aF0.0
abaF89.99995591912644
ag8
aa(lp25
g2
(g3
g4
Ntp26
Rp27
(lp28
F39.85783386230469
aF11.210493087768555
aF0.0
abaF89.87258704222431
ag8
aa(lp29
g2
(g3
g4
Ntp30
Rp31
(lp32
F45.98429489135742
aF11.280536651611328
aF0.0
abaF88.57786171440664
ag8
aa(lp33
g2
(g3
g4
Ntp34
Rp35
(lp36
F3.563852310180664
aF7.033942699432373
aF0.0
abaF0.19219863098046214
ag8
aa(lp37
g2
(g3
g4
Ntp38
Rp39
(lp40
F7.945608139038086
aF14.080222129821777
aF0.0
abaF-90.79874197050412
ag8
aa(lp41
g2
(g3
g4
Ntp42
Rp43
(lp44
F23.584524154663086
aF14.031116485595703
aF0.0
abaF-89.31421095690608
ag8
aa(lp45
g2
(g3
g4
Ntp46
Rp47
(lp48
F7.890964508056641
aF30.597944259643555
aF0.0
abaF87.49339277995401
ag8
aa(lp49
g2
(g3
g4
Ntp50
Rp51
(lp52
F9.286392211914062
aF34.0846061706543
aF0.0
abaF-90.9219803423392
ag8
aa(lp53
g2
(g3
g4
Ntp54
Rp55
(lp56
F12.850048065185547
aF33.82188034057617
aF0.0
abaF-90.67794015190445
ag8
aa(lp57
g2
(g3
g4
Ntp58
Rp59
(lp60
F17.241878509521484
aF33.96461486816406
aF0.0
abaF-88.17646836056717
ag8
aa(lp61
g2
(g3
g4
Ntp62
Rp63
(lp64
F22.010147094726562
aF33.7795295715332
aF0.0
abaF-90.54791088727193
ag8
aa(lp65
g2
(g3
g4
Ntp66
Rp67
(lp68
F31.546701431274414
aF33.721500396728516
aF0.0
abaF-90.7550529628525
ag8
aa(lp69
g2
(g3
g4
Ntp70
Rp71
(lp72
F34.79050064086914
aF34.01993942260742
aF0.0
abaF-89.75778572118618
ag8
aa(lp73
g2
(g3
g4
Ntp74
Rp75
(lp76
F39.239376068115234
aF33.909969329833984
aF0.0
abaF-90.02686233362257
ag8
aa(lp77
g2
(g3
g4
Ntp78
Rp79
(lp80
F44.24122619628906
aF34.027793884277344
aF0.0
abaF-89.16717970390386
ag8
aa(lp81
g2
(g3
g4
Ntp82
Rp83
(lp84
F51.13467788696289
aF41.141395568847656
aF0.0
abaF3.36638581600372
ag8
aa(lp85
g2
(g3
g4
Ntp86
Rp87
(lp88
F28.607315063476562
aF41.07735824584961
aF0.0
abaF-176.05930312655397
ag8
aa(lp89
g2
(g3
g4
Ntp90
Rp91
(lp92
F24.434917449951172
aF41.17710494995117
aF0.0
abaF-2.21771312284619
ag8
aa(lp93
g2
(g3
g4
Ntp94
Rp95
(lp96
F6.538860321044922
aF41.18417739868164
aF0.0
abaF179.93214713144343
ag8
aa(lp97
g2
(g3
g4
Ntp98
Rp99
(lp100
F14.633157730102539
aF47.641971588134766
aF0.0
abaF-86.8336868070926
ag8
aa(lp101
g2
(g3
g4
Ntp102
Rp103
(lp104
F24.13835906982422
aF47.64827346801758
aF0.0
abaF-94.16353333508165
ag8
aa(lp105
g2
(g3
g4
Ntp106
Rp107
(lp108
F30.517173767089844
aF47.71524429321289
aF0.0
abaF-92.18362988806327
ag8
aa(lp109
g2
(g3
g4
Ntp110
Rp111
(lp112
F32.962806701660156
aF47.80821990966797
aF0.0
abaF-88.44811740808935
ag8
aa(lp113
g2
(g3
g4
Ntp114
Rp115
(lp116
F42.39236831665039
aF48.006771087646484
aF0.0
abaF-83.54871280005067
ag8
aa(lp117
g2
(g3
g4
Ntp118
Rp119
(lp120
F45.14055633544922
aF47.96343994140625
aF0.0
abaF-89.99999999999999
ag8
aa(lp121
g2
(g3
g4
Ntp122
Rp123
(lp124
F55.03661346435547
aF43.30791473388672
aF0.0
abaF178.95309078647585
ag8
aa(lp125
g2
(g3
g4
Ntp126
Rp127
(lp128
F5.22081184387207
aF31.996129989624023
aF0.0
abaF179.9322073758563
aS'T junction'
p129
aa(lp130
g2
(g3
g4
Ntp131
Rp132
(lp133
F26.483680725097656
aF31.99569320678711
aF0.0
abaF-88.7570044118105
ag129
aa(lp134
g2
(g3
g4
Ntp135
Rp136
(lp137
F52.435203552246094
aF33.77251434326172
aF0.0
abaF0.3273168305666563
ag129
aa(lp138
g2
(g3
g4
Ntp139
Rp140
(lp141
F26.48314094543457
aF46.24030303955078
aF0.0
abaF90.99724528724981
ag129
aa(lp142
g2
(g3
g4
Ntp143
Rp144
(lp145
F52.642478942871094
aF12.776200294494629
aF0.0
abaF-35.727284765476966
aS'Corner'
p146
aa(lp147
g2
(g3
g4
Ntp148
Rp149
(lp150
F52.30096435546875
aF45.74156188964844
aF0.0
abaF33.26588617501002
ag146
aa(lp151
g2
(g3
g4
Ntp152
Rp153
(lp154
F5.142215728759766
aF46.24931335449219
aF0.0
abaF140.36541438705757
ag146
aa(lp155
g2
(g3
g4
Ntp156
Rp157
(lp158
F5.091413497924805
aF12.310953140258789
aF0.0
abaF178.1792483539658
aS'T junction'
p159
aa.