(lp0
(lp1
ccopy_reg
_reconstructor
p2
(cgeometry_msgs.msg._Point
Point
p3
c__builtin__
object
p4
Ntp5
Rp6
(lp7
F86.98066711425781
aF7.902646064758301
aF0.0
abaF88.82655210433343
aS'close_room'
p8
aa(lp9
g2
(g3
g4
Ntp10
Rp11
(lp12
F103.54613494873047
aF6.355597019195557
aF0.0
abaF88.08898478508692
ag8
aa(lp13
g2
(g3
g4
Ntp14
Rp15
(lp16
F72.73146057128906
aF6.969600677490234
aF0.0
abaF88.17773528429116
ag8
aa(lp17
g2
(g3
g4
Ntp18
Rp19
(lp20
F51.50238037109375
aF7.237517356872559
aF0.0
abaF86.32580476717902
ag8
aa(lp21
g2
(g3
g4
Ntp22
Rp23
(lp24
F39.81995391845703
aF8.780606269836426
aF0.0
abaF89.3223702615305
ag8
aa(lp25
g2
(g3
g4
Ntp26
Rp27
(lp28
F31.41783332824707
aF13.035916328430176
aF0.0
abaF-92.3956140043052
ag8
aa(lp29
g2
(g3
g4
Ntp30
Rp31
(lp32
F11.65048599243164
aF14.52193832397461
aF0.0
abaF-90.63946053440316
ag8
aa(lp33
g2
(g3
g4
Ntp34
Rp35
(lp36
F7.0075483322143555
aF10.725034713745117
aF0.0
abaF89.9998432349617
aS'open_room'
p37
aa(lp38
g2
(g3
g4
Ntp39
Rp40
(lp41
F8.435578346252441
aF14.878144264221191
aF0.0
abaF-90.00006735992484
ag37
aa(lp42
g2
(g3
g4
Ntp43
Rp44
(lp45
F11.333879470825195
aF9.33925724029541
aF0.0
abaF85.42604035885371
ag37
aa(lp46
g2
(g3
g4
Ntp47
Rp48
(lp49
F22.97684097290039
aF13.622965812683105
aF0.0
abaF-94.20527493758993
ag37
aa(lp50
g2
(g3
g4
Ntp51
Rp52
(lp53
F25.224567413330078
aF13.479313850402832
aF0.0
abaF-85.5443592249095
ag37
aa(lp54
g2
(g3
g4
Ntp55
Rp56
(lp57
F21.523418426513672
aF9.617612838745117
aF0.0
abaF89.50712262877471
ag37
aa(lp58
g2
(g3
g4
Ntp59
Rp60
(lp61
F25.647075653076172
aF8.14306640625
aF0.0
abaF88.68506317639027
ag37
aa(lp62
g2
(g3
g4
Ntp63
Rp64
(lp65
F35.87718963623047
aF13.056822776794434
aF0.0
abaF-90.73186847589332
ag37
aa(lp66
g2
(g3
g4
Ntp67
Rp68
(lp69
F58.151119232177734
aF12.44682502746582
aF0.0
abaF-88.25441829834766
ag37
aa(lp70
g2
(g3
g4
Ntp71
Rp72
(lp73
F70.09126281738281
aF12.191996574401855
aF0.0
abaF-90.00048217735956
ag37
aa(lp74
g2
(g3
g4
Ntp75
Rp76
(lp77
F72.22139739990234
aF12.196223258972168
aF0.0
abaF-89.99999999999999
ag37
aa(lp78
g2
(g3
g4
Ntp79
Rp80
(lp81
F68.94165802001953
aF8.223334312438965
aF0.0
abaF85.57347340300872
ag37
aa(lp82
g2
(g3
g4
Ntp83
Rp84
(lp85
F89.18121337890625
aF11.952954292297363
aF0.0
abaF-89.99946019330825
ag37
aa(lp86
g2
(g3
g4
Ntp87
Rp88
(lp89
F100.77467346191406
aF11.636078834533691
aF0.0
abaF-91.25753233641015
ag37
aa(lp90
g2
(g3
g4
Ntp91
Rp92
(lp93
F103.03926086425781
aF11.640303611755371
aF0.0
abaF-88.53329900028235
ag37
aa(lp94
g2
(g3
g4
Ntp95
Rp96
(lp97
F99.65925598144531
aF7.571615695953369
aF0.0
abaF88.98360183818457
ag37
aa.