(lp0
(lp1
ccopy_reg
_reconstructor
p2
(cgeometry_msgs.msg._Point
Point
p3
c__builtin__
object
p4
Ntp5
Rp6
(lp7
F137.82325744628906
aF9.716599464416504
aF0.0
abaF89.32504635721565
aS'close_room'
p8
aa(lp9
g2
(g3
g4
Ntp10
Rp11
(lp12
F116.15241241455078
aF10.625317573547363
aF0.0
abaF87.69778861214223
ag8
aa(lp13
g2
(g3
g4
Ntp14
Rp15
(lp16
F96.9764633178711
aF10.51991081237793
aF0.0
abaF90.56074091407736
ag8
aa(lp17
g2
(g3
g4
Ntp18
Rp19
(lp20
F74.71868133544922
aF11.540782928466797
aF0.0
abaF90.92587841620798
ag8
aa(lp21
g2
(g3
g4
Ntp22
Rp23
(lp24
F68.60531616210938
aF11.210742950439453
aF0.0
abaF88.6520349381916
ag8
aa(lp25
g2
(g3
g4
Ntp26
Rp27
(lp28
F53.329185485839844
aF11.865989685058594
aF0.0
abaF91.40351738244065
ag8
aa(lp29
g2
(g3
g4
Ntp30
Rp31
(lp32
F41.90185546875
aF17.27495765686035
aF0.0
abaF-90.14086333793595
ag8
aa(lp33
g2
(g3
g4
Ntp34
Rp35
(lp36
F15.559385299682617
aF19.03769302368164
aF0.0
abaF-94.41472401561592
ag8
aa(lp37
g2
(g3
g4
Ntp38
Rp39
(lp40
F11.49376106262207
aF19.592134475708008
aF0.0
abaF-91.94975972652897
aS'open_room'
p41
aa(lp42
g2
(g3
g4
Ntp43
Rp44
(lp45
F9.648679733276367
aF14.456828117370605
aF0.0
abaF81.62807528514969
ag41
aa(lp46
g2
(g3
g4
Ntp47
Rp48
(lp49
F15.153485298156738
aF13.385322570800781
aF0.0
abaF90.00726362339294
ag41
aa(lp50
g2
(g3
g4
Ntp51
Rp52
(lp53
F30.392303466796875
aF18.03960609436035
aF0.0
abaF-91.57880118122819
ag41
aa(lp54
g2
(g3
g4
Ntp55
Rp56
(lp57
F33.57172393798828
aF17.689157485961914
aF0.0
abaF-88.6452719245139
ag41
aa(lp58
g2
(g3
g4
Ntp59
Rp60
(lp61
F28.696619033813477
aF13.113587379455566
aF0.0
abaF83.93674773680519
ag41
aa(lp62
g2
(g3
g4
Ntp63
Rp64
(lp65
F33.90663528442383
aF12.31126594543457
aF0.0
abaF84.559675605068
ag41
aa(lp66
g2
(g3
g4
Ntp67
Rp68
(lp69
F47.76707077026367
aF17.344032287597656
aF0.0
abaF-89.11178260263704
ag41
aa(lp70
g2
(g3
g4
Ntp71
Rp72
(lp73
F77.42652893066406
aF16.589418411254883
aF0.0
abaF-92.02461767422746
ag41
aa(lp74
g2
(g3
g4
Ntp75
Rp76
(lp77
F93.32976531982422
aF16.40289878845215
aF0.0
abaF-91.57623757247059
ag41
aa(lp78
g2
(g3
g4
Ntp79
Rp80
(lp81
F96.27494049072266
aF16.22263526916504
aF0.0
abaF-87.76290655667252
ag41
aa(lp82
g2
(g3
g4
Ntp83
Rp84
(lp85
F92.0501480102539
aF10.794393539428711
aF0.0
abaF89.9998535956553
ag41
aa(lp86
g2
(g3
g4
Ntp87
Rp88
(lp89
F118.47969055175781
aF15.589085578918457
aF0.0
abaF-89.66692040005177
ag41
aa(lp90
g2
(g3
g4
Ntp91
Rp92
(lp93
F132.95175170898438
aF10.083961486816406
aF0.0
abaF90.00033490647908
ag41
aa(lp94
g2
(g3
g4
Ntp95
Rp96
(lp97
F134.41441345214844
aF15.520757675170898
aF0.0
abaF-88.37083159785158
ag41
aa(lp98
g2
(g3
g4
Ntp99
Rp100
(lp101
F137.2178955078125
aF15.541069984436035
aF0.0
abaF-91.72998775041331
ag41
aa.