(lp0
(lp1
ccopy_reg
_reconstructor
p2
(cgeometry_msgs.msg._Point
Point
p3
c__builtin__
object
p4
Ntp5
Rp6
(lp7
F18.882652282714844
aF18.63361167907715
aF0.0
abaF-178.56805597426552
aS'close_room'
p8
aa(lp9
g2
(g3
g4
Ntp10
Rp11
(lp12
F17.73736572265625
aF19.72731590270996
aF0.0
abaF-88.12852079553667
ag8
aa(lp13
g2
(g3
g4
Ntp14
Rp15
(lp16
F12.083133697509766
aF19.706676483154297
aF0.0
abaF-88.88389987602051
ag8
aa(lp17
g2
(g3
g4
Ntp18
Rp19
(lp20
F6.480499267578125
aF19.809856414794922
aF0.0
abaF-89.99983276480998
ag8
aa(lp21
g2
(g3
g4
Ntp22
Rp23
(lp24
F1.0120048522949219
aF19.892398834228516
aF0.0
abaF-88.75476456326057
ag8
aa(lp25
g2
(g3
g4
Ntp26
Rp27
(lp28
F0.351654052734375
aF18.200258255004883
aF0.0
abaF1.181503971592722
ag8
aa(lp29
g2
(g3
g4
Ntp30
Rp31
(lp32
F0.3107128143310547
aF14.220361709594727
aF0.0
abaF2.3137203392006986
ag8
aa(lp33
g2
(g3
g4
Ntp34
Rp35
(lp36
F0.30039405822753906
aF11.456209182739258
aF0.0
abaF1.3532306909104235
ag8
aa(lp37
g2
(g3
g4
Ntp38
Rp39
(lp40
F0.2694549560546875
aF6.154818534851074
aF0.0
abaF-2.8830717605967804
ag8
aa(lp41
g2
(g3
g4
Ntp42
Rp43
(lp44
F1.2595291137695312
aF0.4054679870605469
aF0.0
abaF90.60608587452742
ag8
aa(lp45
g2
(g3
g4
Ntp46
Rp47
(lp48
F3.62994384765625
aF0.47760963439941406
aF0.0
abaF88.80422070723596
ag8
aa(lp49
g2
(g3
g4
Ntp50
Rp51
(lp52
F9.061275482177734
aF0.44669532775878906
aF0.0
abaF90.21114808799447
ag8
aa(lp53
g2
(g3
g4
Ntp54
Rp55
(lp56
F14.605977058410645
aF0.49822235107421875
aF0.0
abaF92.89471692343216
ag8
aa(lp57
g2
(g3
g4
Ntp58
Rp59
(lp60
F16.225208282470703
aF5.474094390869141
aF0.0
abaF4.253802609533554
ag8
aa(lp61
g2
(g3
g4
Ntp62
Rp63
(lp64
F16.287090301513672
aF14.075965881347656
aF0.0
abaF1.8377413307276231
ag8
aa(lp65
g2
(g3
g4
Ntp66
Rp67
(lp68
F2.4250736236572266
aF6.299213409423828
aF0.0
abaF179.231540292555
ag8
aa(lp69
g2
(g3
g4
Ntp70
Rp71
(lp72
F37.13166809082031
aF12.621692657470703
aF0.0
abaF-87.61405711731571
ag8
aa(lp73
g2
(g3
g4
Ntp74
Rp75
(lp76
F44.310211181640625
aF12.580436706542969
aF0.0
abaF-87.7867767617767
ag8
aa(lp77
g2
(g3
g4
Ntp78
Rp79
(lp80
F62.359703063964844
aF12.652636528015137
aF0.0
abaF-86.80661999178581
ag8
aa(lp81
g2
(g3
g4
Ntp82
Rp83
(lp84
F76.49774169921875
aF12.428986549377441
aF0.0
abaF-86.34076176701149
ag8
aa(lp85
g2
(g3
g4
Ntp86
Rp87
(lp88
F62.17927932739258
aF7.450140953063965
aF0.0
abaF91.20167064846885
ag8
aa(lp89
g2
(g3
g4
Ntp90
Rp91
(lp92
F54.007118225097656
aF7.364302635192871
aF0.0
abaF95.77818704693445
ag8
aa(lp93
g2
(g3
g4
Ntp94
Rp95
(lp96
F44.23828125
aF7.484478950500488
aF0.0
abaF92.66294408589529
ag8
aa(lp97
g2
(g3
g4
Ntp98
Rp99
(lp100
F37.130558013916016
aF7.707671165466309
aF0.0
abaF94.35105514605742
ag8
aa(lp101
g2
(g3
g4
Ntp102
Rp103
(lp104
F28.70086669921875
aF7.450141906738281
aF0.0
abaF95.19437963133313
ag8
aa(lp105
g2
(g3
g4
Ntp106
Rp107
(lp108
F21.833498001098633
aF12.652174949645996
aF0.0
abaF-86.56627407691457
aS'open_room'
p109
aa(lp110
g2
(g3
g4
Ntp111
Rp112
(lp113
F28.906885147094727
aF12.617835998535156
aF0.0
abaF-89.2510099770458
ag109
aa(lp114
g2
(g3
g4
Ntp115
Rp116
(lp117
F50.178558349609375
aF10.437445640563965
aF0.0
abaF93.13637504089841
ag109
aa(lp118
g2
(g3
g4
Ntp119
Rp120
(lp121
F54.09295654296875
aF12.583497047424316
aF0.0
abaF-86.4458188289831
ag109
aa(lp122
g2
(g3
g4
Ntp123
Rp124
(lp125
F58.23054504394531
aF10.420284271240234
aF0.0
abaF93.63307852589638
ag109
aa(lp126
g2
(g3
g4
Ntp127
Rp128
(lp129
F66.76324462890625
aF10.317270278930664
aF0.0
abaF96.88168819501456
ag109
aa(lp130
g2
(g3
g4
Ntp131
Rp132
(lp133
F70.74632263183594
aF12.703678131103516
aF0.0
abaF-82.19104099749916
ag109
aa(lp134
g2
(g3
g4
Ntp135
Rp136
(lp137
F70.84933471679688
aF7.347131729125977
aF0.0
abaF91.82417264339027
ag109
aa(lp138
g2
(g3
g4
Ntp139
Rp140
(lp141
F76.29171752929688
aF7.415802001953125
aF0.0
abaF93.23098813232721
ag109
aa(lp142
g2
(g3
g4
Ntp143
Rp144
(lp145
F53.955604553222656
aF11.364543914794922
aF0.0
abaF-86.22452045798661
aS'4_junction'
p146
aa(lp147
g2
(g3
g4
Ntp148
Rp149
(lp150
F71.27853393554688
aF10.71214485168457
aF0.0
abaF-83.08846642263883
ag146
aa(lp151
g2
(g3
g4
Ntp152
Rp153
(lp154
F17.661575317382812
aF11.41604232788086
aF0.0
abaF-179.66898679715496
aS't_junction'
p155
aa(lp156
g2
(g3
g4
Ntp157
Rp158
(lp159
F1.6091022491455078
aF18.43793296813965
aF0.0
abaF124.28686500661607
aS'corner'
p160
aa(lp161
g2
(g3
g4
Ntp162
Rp163
(lp164
F17.52422332763672
aF18.352087020874023
aF0.0
abaF51.063559831685026
ag160
aa(lp165
g2
(g3
g4
Ntp166
Rp167
(lp168
F1.7636184692382812
aF1.355356216430664
aF0.0
abaF-148.25472806398983
ag160
aa(lp169
g2
(g3
g4
Ntp170
Rp171
(lp172
F17.095016479492188
aF1.5098705291748047
aF0.0
abaF-31.052255578448538
ag160
aa.