(lp0
(lp1
F18.619251397106353
aF39.549998462082335
aF0.0
aa(lp2
F18.519251397110114
aF39.54999932738176
aF0.0
aa(lp3
F18.41925139711357
aF39.55000015963233
aF0.0
aa(lp4
F18.339251397116154
aF39.55000080368977
aF0.0
aa(lp5
F18.239251397119112
aF39.550001573826066
aF0.0
aa(lp6
F18.11925139712231
aF39.55000244800002
aF0.0
aa(lp7
F18.039251397124264
aF39.550003006615285
aF0.0
aa(lp8
F17.939251397126462
aF39.55000366811326
aF0.0
aa(lp9
F17.81925139712922
aF39.550004472798875
aF0.0
aa(lp10
F17.73925139713097
aF39.5500050141994
aF0.0
aa.