(lp0
(lp1
F34.61925124915872
aF39.55003090663653
aF0.0
aa(lp2
F34.51925124934908
aF39.550024766213504
aF0.0
aa(lp3
F34.419251249456906
aF39.550020173507356
aF0.0
aa(lp4
F34.319251249502145
aF39.55001721313233
aF0.0
aa(lp5
F34.23925124951691
aF39.550015671786845
aF0.0
aa(lp6
F34.119251249525334
aF39.55001424941316
aF0.0
aa(lp7
F34.01925124953237
aF39.55001306467077
aF0.0
aa(lp8
F33.91925124953919
aF39.55001189683863
aF0.0
aa(lp9
F33.81925124954536
aF39.55001079395769
aF0.0
aa(lp10
F33.71925124955011
aF39.550009812884305
aF0.0
aa.