(lp0
(lp1
F39.46017443090284
aF29.53958325274582
aF0.0
aa(lp2
F39.39644753202219
aF29.698900497025747
aF0.0
aa(lp3
F39.268993734260846
aF30.113125332153572
aF0.0
aa(lp4
F39.22438490504438
aF30.355287543459006
aF0.0
aa(lp5
F39.141539936499505
aF30.635685893391738
aF0.0
aa(lp6
F39.01408613873815
aF30.941575002409202
aF0.0
aa(lp7
F38.69545164433477
aF31.419526735249008
aF0.0
aa(lp8
F38.24936335217005
aF31.897478468088785
aF0.0
aa(lp9
F38.000828446535536
aF31.98669612488549
aF0.0
aa(lp10
F37.45277711616161
aF32.12689529985189
aF0.0
aa(lp11
F36.68805432959353
aF32.27983985436061
aF0.0
aa(lp12
F36.11451223966745
aF32.407293649784556
aF0.0
aa(lp13
F35.32429869354722
aF32.502883996352516
aF0.0
aa(lp14
F34.50859438787484
aF32.5028839963525
aF0.0
aa(lp15
F33.18307489115641
aF32.502883996352516
aF0.0
aa(lp16
F32.13158105962528
aF32.43915709864054
aF0.0
aa(lp17
F31.11195067753465
aF32.31170330321661
aF0.0
aa(lp18
F30.25163754264561
aF32.30533061344541
aF0.0
aa(lp19
F29.06631722346515
aF32.27983985436061
aF0.0
aa(lp20
F27.409417852567245
aF32.279839854360624
aF0.0
aa(lp21
F25.47212012659476
aF32.27983985436061
aF0.0
aa(lp22
F22.8656899623754
aF32.279839854360624
aF0.0
aa(lp23
F21.77595999151586
aF32.27983985436061
aF0.0
aa(lp24
F20.883783407186172
aF32.27983985436061
aF0.0
aa(lp25
F20.03621565207318
aF32.27983985436061
aF0.0
aa(lp26
F19.277865555392367
aF32.27983985436061
aF0.0
aa(lp27
F18.58961504748187
aF32.279839854360624
aF0.0
aa(lp28
F16.556726973188745
aF32.27983985436061
aF0.0
aa(lp29
F15.180225957365764
aF32.279839854360624
aF0.0
aa(lp30
F13.873824530311946
aF32.27983985436062
aF0.0
aa(lp31
F12.274279368406098
aF32.279839854360624
aF0.0
aa(lp32
F11.484065822286645
aF32.27983985436061
aF0.0
aa(lp33
F10.17766439523281
aF32.34356675207258
aF0.0
aa(lp34
F9.253624361463032
aF32.40729364978458
aF0.0
aa(lp35
F8.361447777133563
aF32.490138616810135
aF0.0
aa(lp36
F7.080537109631408
aF32.70681006903089
aF0.0
aa(lp37
F6.545231159034351
aF32.75779158720039
aF0.0
aa(lp38
F5.7486449230259
aF32.757791587200394
aF0.0
aa(lp39
F5.334420080301527
aF32.75779158720038
aF0.0
aa(lp40
F4.493225015076611
aF32.59210165314929
aF0.0
aa(lp41
F3.983409824030879
aF32.3499394418434
aF0.0
aa(lp42
F3.6775207094039715
aF31.99306881465673
aF0.0
aa(lp43
F3.2951593161199284
aF31.610707428384906
aF0.0
aa(lp44
F3.040251720597219
aF31.132755695545093
aF0.0
aa(lp45
F2.944661372276208
aF30.559213616137377
aF0.0
aa(lp46
F2.7853441250745163
aF29.507719803889835
aF0.0
aa(lp47
F2.657890327313183
aF28.934177724482105
aF0.0
aa(lp48
F2.626026877872839
aF28.04200115651448
aF0.0
aa(lp49
F2.447591561006952
aF26.474319472800275
aF0.0
aa(lp50
F2.3711192823501435
aF25.429198350323638
aF0.0
aa(lp51
F2.3073923834694554
aF24.568885231212015
aF0.0
aa(lp52
F2.2054293452603773
aF23.49190065987999
aF0.0
aa(lp53
F2.160820516043934
aF22.198244636327022
aF0.0
aa(lp54
F2.084348237387111
aF21.000178959341604
aF0.0
aa(lp55
F1.8931675407451252
aF19.85309480052613
aF0.0
aa(lp56
F1.7402229834313445
aF18.865327885989693
aF0.0
aa(lp57
F1.6382599452223872
aF18.10060511344691
aF0.0
aa(lp58
F1.6063964957820502
aF17.463336136327193
aF0.0
aa(lp59
F1.6000238058939757
aF16.666749914927728
aF0.0
aa(lp60
F1.7211049137672418
aF15.902027142383872
aF0.0
aa(lp61
F1.791204502535976
aF15.296621614119715
aF0.0
aa(lp62
F1.7529683632076143
aF14.831415260822837
aF0.0
aa(lp63
F1.7019868441030894
aF14.500035392720513
aF0.0
aa(lp64
F1.7593410530956888
aF13.901002554228114
aF0.0
aa(lp65
F1.721104913767256
aF13.276478956650635
aF0.0
aa(lp66
F1.644632635110348
aF12.613719220445681
aF0.0
aa(lp67
F1.5235515272371885
aF12.116649418292852
aF0.0
aa(lp68
F1.4470792485803656
aF11.689679203622624
aF0.0
aa(lp69
F1.4470792485803727
aF11.409280853689872
aF0.0
aa(lp70
F1.4470792485803585
aF11.186236711697973
aF0.0
aa(lp71
F1.606396495782036
aF10.995056018562039
aF0.0
aa(lp72
F1.931403680073366
aF10.657303460688631
aF0.0
aa(lp73
F2.3392558329098136
aF10.580831183434242
aF0.0
aa(lp74
F3.1740782082464776
aF10.580831183434249
aF0.0
aa(lp75
F3.8368379566056703
aF10.580831183434242
aF0.0
aa(lp76
F4.862841028584988
aF10.485240836866275
aF0.0
aa(lp77
F5.4427558083984735
aF10.478868147095092
aF0.0
aa(lp78
F6.131006316309964
aF10.453377388010296
aF0.0
aa(lp79
F7.195245527617104
aF10.294060143730356
aF0.0
aa(lp80
F7.628588440005821
aF10.294060143730363
aF0.0
aa(lp81
F8.265857428812566
aF10.166606348306424
aF0.0
aa(lp82
F10.528162339075912
aF9.975425655170504
aF0.0
aa(lp83
F12.69487690101947
aF9.975425655170504
aF0.0
aa(lp84
F14.115986746058482
aF9.975425655170497
aF0.0
aa(lp85
F14.262558613484067
aF10.00728910402649
aF0.0
aa(lp86
F14.542956968559032
aF10.13474289945043
aF0.0
aa(lp87
F14.98904526072375
aF10.294060143730363
aF0.0
aa(lp88
F15.30767975512714
aF10.421513939154309
aF0.0
aa(lp89
F15.498860451769154
aF10.421513939154309
aF0.0
aa(lp90
F16.008675642814552
aF10.453377388010296
aF0.0
aa(lp91
F17.092032923786036
aF10.580831183434228
aF0.0
aa(lp92
F18.46216124972051
aF10.772011876570136
aF0.0
aa(lp93
F19.641108879012997
aF10.83573877428211
aF0.0
aa(lp94
F20.584266982446685
aF10.797502635654975
aF0.0
aa(lp95
F21.935277238717283
aF10.606321942519013
aF0.0
aa(lp96
F23.20981521633196
aF10.415141249382938
aF0.0
aa(lp97
F24.229445598421577
aF10.262196694874373
aF0.0
aa(lp98
F24.930441486109004
aF10.134742899450426
aF0.0
aa(lp99
F25.58682854457969
aF10.141115589221588
aF0.0
aa(lp100
F26.631949686223024
aF10.319550902815156
aF0.0
aa.