(lp0
(lp1
F37.9371568644747
aF32.37508100239358
aF0.0
aa(lp2
F37.93789217613525
aF32.47507829894085
aF0.0
aa(lp3
F37.93877455012793
aF32.59507505479758
aF0.0
aa(lp4
F37.939509861788494
aF32.695072351344784
aF0.0
aa(lp5
F37.94009811111698
aF32.775070188582696
aF0.0
aa(lp6
F37.94083342277753
aF32.87506748512994
aF0.0
aa(lp7
F37.941715796770225
aF32.99506424098661
aF0.0
aa(lp8
F37.942304046098684
aF33.07506207822446
aF0.0
aa(lp9
F37.94303935775923
aF33.175059374771735
aF0.0
aa(lp10
F37.943774669419795
aF33.275056671318985
aF0.0
aa.