(lp0
(lp1
F46.314270834983624
aF13.469828568707317
aF0.0
aa(lp2
F46.17063394332416
aF13.469828568707317
aF0.0
aa(lp3
F46.17063394332416
aF13.469828568707317
aF0.0
aa(lp4
F46.02699705166468
aF13.445889088558506
aF0.0
aa(lp5
F45.59608637668629
aF13.27831272751683
aF0.0
aa(lp6
F45.38063103919707
aF13.469828568707317
aF0.0
aa(lp7
F45.18911518365111
aF13.757102330493058
aF0.0
aa(lp8
F45.11729673782138
aF14.068315572427604
aF0.0
aa(lp9
F45.11729673782138
aF14.446559358778735
aF0.0
aa(lp10
F45.11729673782138
aF14.618923615850267
aF0.0
aa(lp11
F45.0215388100484
aF15.112076906915796
aF0.0
aa(lp12
F44.72468923395241
aF15.758442870933454
aF0.0
aa(lp13
F44.22196011314402
aF16.22286878582064
aF0.0
aa(lp14
F43.8963831587159
aF16.318626706415888
aF0.0
aa(lp15
F43.34577507402126
aF16.41438462701114
aF0.0
aa(lp16
F43.05850129070234
aF16.558021507904005
aF0.0
aa(lp17
F43.05850129070234
aF16.558021507904005
aF0.0
aa(lp18
F42.89092491709961
aF17.108629551326676
aF0.0
aa(lp19
F42.795166989326646
aF17.994390316832696
aF0.0
aa(lp20
F42.81910647126988
aF18.16196667787438
aF0.0
aa(lp21
F42.81910647126988
aF18.856211602189912
aF0.0
aa(lp22
F42.790379092938
aF19.684517615338486
aF0.0
aa(lp23
F42.737712232662844
aF20.41706570789243
aF0.0
aa(lp24
F42.60365113378069
aF21.20228065677345
aF0.0
aa(lp25
F42.46001424212122
aF21.705009739898497
aF0.0
aa(lp26
F42.292437868518505
aF22.5428915451069
aF0.0
aa(lp27
F42.26849838657526
aF23.500470751058973
aF0.0
aa(lp28
F42.26849838657526
aF24.17077619522608
aF0.0
aa(lp29
F42.292437868518505
aF24.936839559988055
aF0.0
aa(lp30
F42.292437868518505
aF25.750781885047648
aF0.0
aa(lp31
F42.211043629911465
aF26.73230057114892
aF0.0
aa(lp32
F42.172740458802274
aF27.258969134422443
aF0.0
aa(lp33
F42.19667994074552
aF27.934062474619264
aF0.0
aa(lp34
F42.292437868518505
aF28.33624574111929
aF0.0
aa(lp35
F42.53183268795095
aF28.719277423500277
aF0.0
aa(lp36
F43.10638025458882
aF29.159763858238414
aF0.0
aa(lp37
F43.297896110134786
aF29.29382494707176
aF0.0
aa(lp38
F43.80062523094293
aF29.437461827964622
aF0.0
aa(lp39
F44.4374154506331
aF29.490128684291996
aF0.0
aa(lp40
F44.801295576170546
aF29.533219748559866
aF0.0
aa(lp41
F45.260933629480846
aF29.628977669155116
aF0.0
aa(lp42
F45.505116345301886
aF29.791766134166885
aF0.0
aa(lp43
F45.62002585862952
aF30.05988831183372
aF0.0
aa(lp44
F45.667904822516014
aF30.347162073619455
aF0.0
aa(lp45
F45.76366275028899
aF30.778072716298073
aF0.0
aa(lp46
F45.83548119611872
aF31.065346478083814
aF0.0
aa(lp47
F45.955178605834945
aF31.424438680315983
aF0.0
aa(lp48
F45.96954229500089
aF31.754803506369583
aF0.0
aa(lp49
F46.02699705166468
aF32.21444152522676
aF0.0
aa(lp50
F46.1466944613809
aF32.836868009095866
aF0.0
aa(lp51
F46.19457342526739
aF33.26299075574471
aF0.0
aa(lp52
F46.19457342526739
aF33.53111293341139
aF0.0
aa(lp53
F46.19457342526739
aF33.89020513564357
aF0.0
aa(lp54
F46.19457342526739
aF34.17747889742931
aF0.0
aa(lp55
F46.38608928081335
aF34.67542008452459
aF0.0
aa(lp56
F47.152152702997185
aF34.847784341596025
aF0.0
aa(lp57
F47.607002859918836
aF34.967481742340084
aF0.0
aa(lp58
F48.013974052954
aF35.08717914308416
aF0.0
aa(lp59
F48.98591701984943
aF35.42233186516739
aF0.0
aa(lp60
F49.52216141537842
aF35.613847706358
aF0.0
aa(lp61
F50.47974069310821
aF35.68566614680444
aF0.0
aa(lp62
F50.62337758476768
aF35.70481773092348
aF0.0
aa(lp63
F51.394228903340164
aF35.795787755488966
aF0.0
aa(lp64
F52.17944391107859
aF35.85324250784612
aF0.0
aa(lp65
F55.69854775673558
aF35.90112146814374
aF0.0
aa(lp66
F57.29291725415548
aF35.97293990859018
aF0.0
aa(lp67
F58.05419277995086
aF35.97293990859018
aF0.0
aa(lp68
F59.7203807232007
aF35.97293990859018
aF0.0
aa(lp69
F68.8652628255202
aF35.70960562695326
aF0.0
aa(lp70
F70.7325424170933
aF35.68566614680444
aF0.0
aa(lp71
F70.7325424170933
aF35.68566614680444
aF0.0
aa(lp72
F72.9828537197583
aF35.805363547548495
aF0.0
aa(lp73
F75.592257251572
aF35.925060948292554
aF0.0
aa(lp74
F78.51287404864786
aF36.0208188688878
aF0.0
aa(lp75
F78.89590575973978
aF36.08784941330447
aF0.0
aa(lp76
F80.42803260410743
aF36.355971590971166
aF0.0
aa(lp77
F81.45743032766696
aF36.45172951156641
aF0.0
aa(lp78
F83.32470991924005
aF36.24584998228663
aF0.0
aa(lp79
F84.37804712474282
aF36.18839522992948
aF0.0
aa(lp80
F85.09623158304016
aF36.11657678948305
aF0.0
aa(lp81
F86.47035784658217
aF35.87239409196528
aF0.0
aa(lp82
F87.04490541322029
aF35.58990822620919
aF0.0
aa(lp83
F87.7008472184652
aF35.27869498427465
aF0.0
aa(lp84
F87.93545414150887
aF35.139845999411634
aF0.0
aa(lp85
F88.18442475371874
aF34.967481742340084
aF0.0
aa(lp86
F88.30412216343495
aF34.89566330189366
aF0.0
aa(lp87
F88.44775905509444
aF34.656268500405545
aF0.0
aa(lp88
F88.73503283841337
aF34.20141837757812
aF0.0
aa(lp89
F89.26648933755334
aF33.19596021132837
aF0.0
aa(lp90
F89.37661095449234
aF32.48256370289345
aF0.0
aa(lp91
F89.35745936893774
aF31.92716776344103
aF0.0
aa(lp92
F89.26170144116475
aF31.424438680315983
aF0.0
aa(lp93
F89.21382247727827
aF30.70625427585163
aF0.0
aa(lp94
F89.22339827005555
aF29.729523485780497
aF0.0
aa(lp95
F89.27127723394206
aF28.85812640836338
aF0.0
aa(lp96
F89.30479250866262
aF27.819152969905318
aF0.0
aa(lp97
F89.28085302671936
aF27.02436222896442
aF0.0
aa(lp98
F89.26170144116475
aF26.373208368916746
aF0.0
aa(lp99
F89.285640923108
aF25.439568643113088
aF0.0
aa(lp100
F89.26648933755341
aF24.410170996714196
aF0.0
aa.