(lp0
(lp1
F85.52714225801859
aF7.015744720587724
aF0.0
aa(lp2
F85.52235436162994
aF6.541743013641549
aF0.0
aa(lp3
F85.50320277607534
aF5.919316529772161
aF0.0
aa(lp4
F85.50320277607534
aF5.4979816791530745
aF0.0
aa(lp5
F85.4792632941321
aF4.971313115879223
aF0.0
aa(lp6
F85.4792632941321
aF4.655311977914906
aF0.0
aa(lp7
F85.48405119052074
aF4.372826112159093
aF0.0
aa(lp8
F85.51756646524129
aF4.013733909926758
aF0.0
aa(lp9
F85.57502122190508
aF3.726460148141019
aF0.0
aa(lp10
F85.59896070384832
aF3.4870653466529085
aF0.0
aa(lp11
F85.8862344871672
aF2.744941462039744
aF0.0
aa(lp12
F86.02987137882673
aF2.7353656699802187
aF0.0
aa(lp13
F86.23096302714998
aF2.692274605712363
aF0.0
aa(lp14
F86.26926619825917
aF2.673123021593316
aF0.0
aa(lp15
F87.17417861571383
aF2.5294861407004454
aF0.0
aa(lp16
F87.34654288570519
aF2.5294861407004454
aF0.0
aa(lp17
F88.32806164537823
aF2.5055466605516337
aF0.0
aa(lp18
F88.62491122147446
aF2.558213516879018
aF0.0
aa(lp19
F88.8307907661862
aF2.582152997027819
aF0.0
aa(lp20
F89.1180645495053
aF2.6013045811468736
aF0.0
aa(lp21
F89.42448991837868
aF2.64439564541469
aF0.0
aa(lp22
F89.75485476919562
aF2.744941462039744
aF0.0
aa(lp23
F90.0564922416805
aF2.859850966754042
aF0.0
aa(lp24
F90.26715968278106
aF2.9364573032302452
aF0.0
aa(lp25
F90.45867553832701
aF3.271610025313599
aF0.0
aa(lp26
F90.5304939841568
aF3.879672821093118
aF0.0
aa(lp27
F90.42037236721782
aF4.516462993051798
aF0.0
aa(lp28
F90.34376602499944
aF5.129313684861373
aF0.0
aa(lp29
F90.26715968278106
aF5.665558040194757
aF0.0
aa(lp30
F90.19534123695131
aF6.393318236718629
aF0.0
aa(lp31
F90.19534123695131
aF6.814653087337707
aF0.0
aa(lp32
F90.2910991647243
aF7.293442690313949
aF0.0
aa(lp33
F90.31503864666753
aF7.628595412397299
aF0.0
aa(lp34
F90.41079657444052
aF9.06496422132599
aF0.0
aa(lp35
F90.42037236721782
aF9.189449518099813
aF0.0
aa(lp36
F90.46346343471565
aF9.78793652181988
aF0.0
aa(lp37
F90.48261502027026
aF10.348120357302292
aF0.0
aa(lp38
F90.41079657444052
aF11.937701839183386
aF0.0
aa(lp39
F90.41079657444052
aF11.937701839183386
aF0.0
aa(lp40
F90.41079657444052
aF11.961641319332191
aF0.0
aa(lp41
F89.95594641751887
aF12.440430922308419
aF0.0
aa(lp42
F89.1180645495053
aF13.086796886326336
aF0.0
aa(lp43
F89.1180645495053
aF13.086796886326336
aF0.0
aa(lp44
F88.75897232035663
aF13.13467584662396
aF0.0
aa(lp45
F87.92109045234307
aF13.158615326772779
aF0.0
aa(lp46
F86.70017687323764
aF13.235221663248957
aF0.0
aa(lp47
F86.6044189454646
aF13.254373247368019
aF0.0
aa(lp48
F85.26380795664387
aF13.330979583844156
aF0.0
aa(lp49
F83.54016525672927
aF13.445889088558513
aF0.0
aa(lp50
F82.79804131648868
aF13.374070648112077
aF0.0
aa(lp51
F82.36713064151027
aF13.350131167963266
aF0.0
aa(lp52
F78.63257145836408
aF13.398010128260882
aF0.0
aa(lp53
F77.98620544589647
aF13.340555375903742
aF0.0
aa(lp54
F76.16680481820987
aF13.278312727516823
aF0.0
aa(lp55
F76.16680481820987
aF13.278312727516823
aF0.0
aa(lp56
F75.30498346825306
aF13.158615326772779
aF0.0
aa(lp57
F74.4527379110743
aF13.110736366475148
aF0.0
aa(lp58
F73.01636899447887
aF13.125100054564435
aF0.0
aa(lp59
F72.40830615312045
aF13.182554806921583
aF0.0
aa(lp60
F72.1210323698015
aF13.182554806921583
aF0.0
aa(lp61
F71.6901216948231
aF13.110736366475148
aF0.0
aa(lp62
F70.70860293515007
aF13.110736366475148
aF0.0
aa(lp63
F69.77496313936352
aF13.110736366475148
aF0.0
aa(lp64
F69.46374987410134
aF13.13467584662396
aF0.0
aa(lp65
F69.40150722104904
aF13.13467584662396
aF0.0
aa(lp66
F69.15253660883916
aF13.13467584662396
aF0.0
aa(lp67
F68.8748386182977
aF13.139463742653712
aF0.0
aa(lp68
F68.472655321651
aF13.16340322280254
aF0.0
aa(lp69
F68.24283629499585
aF13.182554806921583
aF0.0
aa(lp70
F67.85980458390394
aF13.230433767219207
aF0.0
aa(lp71
F67.50071235475527
aF13.206494287070395
aF0.0
aa(lp72
F66.4473751492525
aF13.158615326772779
aF0.0
aa(lp73
F66.35161722147951
aF13.172979014862065
aF0.0
aa(lp74
F65.9685855103876
aF13.230433767219207
aF0.0
aa(lp75
F65.11155205682007
aF13.388434336201332
aF0.0
aa(lp76
F63.98160850909828
aF13.445889088558513
aF0.0
aa(lp77
F62.54523959250359
aF13.637404929749007
aF0.0
aa(lp78
F62.44469376834196
aF13.642192825778768
aF0.0
aa(lp79
F62.32978425501439
aF13.661344409897811
aF0.0
aa(lp80
F62.04251047169545
aF13.685283890046623
aF0.0
aa(lp81
F60.98917326619267
aF13.685283890046623
aF0.0
aa(lp82
F60.98917326619267
aF13.685283890046623
aF0.0
aa(lp83
F56.407156422255625
aF13.685283890046623
aF0.0
aa(lp84
F55.583638243408046
aF13.685283890046623
aF0.0
aa(lp85
F55.42084976619394
aF13.670920201957337
aF0.0
aa(lp86
F54.750544271783085
aF13.608677553570425
aF0.0
aa(lp87
F53.22799322019322
aF13.579950177391874
aF0.0
aa(lp88
F52.347020284681314
aF13.54164700915376
aF0.0
aa(lp89
F49.97222367591149
aF13.182554806921576
aF0.0
aa(lp90
F49.857314162583855
aF13.182554806921576
aF0.0
aa(lp91
F49.000280709015684
aF13.316615895754923
aF0.0
aa(lp92
F48.16718673739097
aF13.28310062354658
aF0.0
aa(lp93
F47.82245819740805
aF13.302252207665635
aF0.0
aa(lp94
F47.29578959465667
aF13.374070648112077
aF0.0
aa(lp95
F47.01330370772637
aF13.455464880618031
aF0.0
aa(lp96
F46.93669736550799
aF13.493768048856136
aF0.0
aa(lp97
F46.673363064132296
aF13.493768048856136
aF0.0
aa(lp98
F46.62548410024581
aF13.493768048856136
aF0.0
aa(lp99
F46.43396824469985
aF13.493768048856136
aF0.0
aa(lp100
F46.43396824469985
aF13.469828568707317
aF0.0
aa.