(lp0
(lp1
F14.050899355091047
aF43.64896068626035
aF0.0
aa(lp2
F14.15059184093668
aF43.65679702889703
aF0.0
aa(lp3
F14.23034582961317
aF43.66306610300636
aF0.0
aa(lp4
F14.330038315458786
aF43.67090244564301
aF0.0
aa(lp5
F14.429730801304423
aF43.67873878827969
aF0.0
aa(lp6
F14.549361784319185
aF43.68814239944369
aF0.0
aa(lp7
F14.629115772995675
aF43.69441147355302
aF0.0
aa(lp8
F14.728808258841305
aF43.7022478161897
aF0.0
aa(lp9
F14.848439241856042
aF43.7116514273537
aF0.0
aa(lp10
F14.928193230532564
aF43.71792050146304
aF0.0
aa.